ARM GAS  /var/folders/jh/mykvt1xn5_n17wfcspzg3zpm0000gp/T//ccIA7qED.s 			page 1


   1              		.syntax unified
   2              		.cpu cortex-m4
   3              		.eabi_attribute 27, 1
   4              		.eabi_attribute 28, 1
   5              		.fpu fpv4-sp-d16
   6              		.eabi_attribute 20, 1
   7              		.eabi_attribute 21, 1
   8              		.eabi_attribute 23, 3
   9              		.eabi_attribute 24, 1
  10              		.eabi_attribute 25, 1
  11              		.eabi_attribute 26, 1
  12              		.eabi_attribute 30, 4
  13              		.eabi_attribute 34, 1
  14              		.eabi_attribute 18, 4
  15              		.thumb
  16              		.syntax unified
  17              		.file	"tremoxd.cpp"
  18              		.text
  19              	.Ltext0:
  20              		.cfi_sections	.debug_frame
  21              		.align	1
  22              		.global	_hook_init
  23              		.thumb
  24              		.thumb_func
  25              		.type	_hook_init, %function
  26              	_hook_init:
  27              	.LFB279:
  28              		.file 1 "src/tremoxd.cpp"
  29              		.loc 1 21 0
  30              		.cfi_startproc
  31              		@ args = 0, pretend = 0, frame = 0
  32              		@ frame_needed = 0, uses_anonymous_args = 0
  33              		@ link register save eliminated.
  34              	.LVL0:
  35              		.loc 1 22 0
  36 0000 044B     		ldr	r3, .L2
  37 0002 0022     		movs	r2, #0
  38 0004 1A60     		str	r2, [r3]	@ float
  39              	.LVL1:
  40              	.LBB25:
  41              	.LBB26:
  42              		.file 2 "logue-sdk/platform/minilogue-xd/inc/dsp/simplelfo.hpp"
  43              		.loc 2 91 0
  44 0006 4FF00042 		mov	r2, #-2147483648
  45 000a 5A60     		str	r2, [r3, #4]
  46              	.LVL2:
  47              	.LBE26:
  48              	.LBE25:
  49              	.LBB27:
  50              	.LBB28:
  51              		.loc 2 103 0
  52 000c 0022     		movs	r2, #0
  53 000e 9A60     		str	r2, [r3, #8]
  54              	.LVL3:
  55 0010 7047     		bx	lr
  56              	.L3:
  57 0012 00BF     		.align	2
ARM GAS  /var/folders/jh/mykvt1xn5_n17wfcspzg3zpm0000gp/T//ccIA7qED.s 			page 2


  58              	.L2:
  59 0014 00000000 		.word	.LANCHOR0
  60              	.LBE28:
  61              	.LBE27:
  62              		.cfi_endproc
  63              	.LFE279:
  64              		.size	_hook_init, .-_hook_init
  65              		.align	1
  66              		.global	_hook_process
  67              		.thumb
  68              		.thumb_func
  69              		.type	_hook_process, %function
  70              	_hook_process:
  71              	.LFB280:
  72              		.loc 1 43 0
  73              		.cfi_startproc
  74              		@ args = 4, pretend = 0, frame = 0
  75              		@ frame_needed = 0, uses_anonymous_args = 0
  76              	.LVL4:
  77 0018 F0B5     		push	{r4, r5, r6, r7, lr}
  78              		.cfi_def_cfa_offset 20
  79              		.cfi_offset 4, -20
  80              		.cfi_offset 5, -16
  81              		.cfi_offset 6, -12
  82              		.cfi_offset 7, -8
  83              		.cfi_offset 14, -4
  84 001a 1F4A     		ldr	r2, .L9
  85              	.LVL5:
  86              		.loc 1 52 0
  87 001c 059B     		ldr	r3, [sp, #20]
  88              	.LVL6:
  89 001e 5668     		ldr	r6, [r2, #4]
  90              	.LBB29:
  91              	.LBB30:
  92              	.LBB31:
  93              	.LBB32:
  94              		.loc 2 82 0
  95 0020 9768     		ldr	r7, [r2, #8]
  96              	.LBE32:
  97              	.LBE31:
  98              	.LBB33:
  99              	.LBB34:
 100              		.loc 2 125 0
 101 0022 9FED1E5A 		vldr.32	s10, .L9+4
 102              	.LBE34:
 103              	.LBE33:
 104              	.LBE30:
 105              	.LBE29:
 106              		.loc 1 52 0
 107 0026 DB00     		lsls	r3, r3, #3
 108 0028 01EB030E 		add	lr, r1, r3
 109              	.LVL7:
 110 002c 3546     		mov	r5, r6
 111 002e 1446     		mov	r4, r2
 112              	.LBB43:
 113              	.LBB41:
 114              		.loc 1 60 0
ARM GAS  /var/folders/jh/mykvt1xn5_n17wfcspzg3zpm0000gp/T//ccIA7qED.s 			page 3


 115 0030 F7EE006A 		vmov.f32	s13, #1.0e+0
 116 0034 F1EE005A 		vmov.f32	s11, #4.0e+0
 117              	.LVL8:
 118              	.L6:
 119              	.LBE41:
 120              		.loc 1 56 0
 121 0038 7145     		cmp	r1, lr
 122 003a 07EE905A 		vmov	s15, r5	@ int
 123              	.LVL9:
 124 003e 00F10800 		add	r0, r0, #8
 125 0042 3D44     		add	r5, r5, r7
 126 0044 22D0     		beq	.L5
 127              	.LVL10:
 128              	.LBB42:
 129              	.LBB39:
 130              	.LBB37:
 131              		.loc 2 125 0
 132 0046 F8EEE77A 		vcvt.f32.s32	s15, s15
 133              	.LBE37:
 134              	.LBE39:
 135              		.loc 1 60 0
 136 004a 94ED006A 		vldr.32	s12, [r4]
 137              	.LBB40:
 138              	.LBB38:
 139              		.loc 2 125 0
 140 004e 27EE857A 		vmul.f32	s14, s15, s10
 141              	.LVL11:
 142              	.LBB35:
 143              	.LBB36:
 144              		.file 3 "logue-sdk/platform/minilogue-xd/inc/utils/float_math.h"
 145              		.loc 3 287 0
 146 0052 17EE102A 		vmov	r2, s14	@ int
 147 0056 22F00042 		bic	r2, r2, #-2147483648
 148 005a 07EE902A 		vmov	s15, r2	@ int
 149              	.LBE36:
 150              	.LBE35:
 151              	.LBE38:
 152              	.LBE40:
 153              		.loc 1 60 0
 154 005e 77EEE67A 		vsub.f32	s15, s15, s13
 155 0062 67EE877A 		vmul.f32	s15, s15, s14
 156 0066 B0EE667A 		vmov.f32	s14, s13
 157              	.LVL12:
 158 006a 67EEA57A 		vmul.f32	s15, s15, s11
 159 006e A6EE677A 		vfms.f32	s14, s12, s15
 160 0072 F0EE477A 		vmov.f32	s15, s14
 161 0076 10ED027A 		vldr.32	s14, [r0, #-8]
 162 007a 67EE877A 		vmul.f32	s15, s15, s14
 163              	.LVL13:
 164              		.loc 1 64 0
 165 007e 17EE902A 		vmov	r2, s15
 166 0082 41F8082B 		str	r2, [r1], #8	@ float
 167              	.LVL14:
 168              		.loc 1 65 0
 169 0086 41ED017A 		vstr.32	s15, [r1, #-4]
 170              	.LVL15:
 171 008a D5E7     		b	.L6
ARM GAS  /var/folders/jh/mykvt1xn5_n17wfcspzg3zpm0000gp/T//ccIA7qED.s 			page 4


 172              	.LVL16:
 173              	.L5:
 174 008c DA08     		lsrs	r2, r3, #3
 175 008e 07FB0263 		mla	r3, r7, r2, r6
 176 0092 6360     		str	r3, [r4, #4]
 177 0094 F0BD     		pop	{r4, r5, r6, r7, pc}
 178              	.LVL17:
 179              	.L10:
 180 0096 00BF     		.align	2
 181              	.L9:
 182 0098 00000000 		.word	.LANCHOR0
 183 009c 00000030 		.word	805306368
 184              	.LBE42:
 185              	.LBE43:
 186              		.cfi_endproc
 187              	.LFE280:
 188              		.size	_hook_process, .-_hook_process
 189              		.align	1
 190              		.global	_hook_param
 191              		.thumb
 192              		.thumb_func
 193              		.type	_hook_param, %function
 194              	_hook_param:
 195              	.LFB281:
 196              		.loc 1 76 0
 197              		.cfi_startproc
 198              		@ args = 0, pretend = 0, frame = 0
 199              		@ frame_needed = 0, uses_anonymous_args = 0
 200              		@ link register save eliminated.
 201              	.LVL18:
 202              		.loc 1 77 0
 203 00a0 07EE901A 		vmov	s15, r1	@ int
 204 00a4 FAEEE07A 		vcvt.f32.s32	s15, s15, #31
 205              	.LVL19:
 206              		.loc 1 78 0
 207 00a8 10B1     		cbz	r0, .L13
 208 00aa 0128     		cmp	r0, #1
 209 00ac 0ED0     		beq	.L14
 210 00ae 7047     		bx	lr
 211              	.L13:
 212              	.LVL20:
 213              	.LBB44:
 214              	.LBB45:
 215              		.loc 2 103 0
 216 00b0 B2EE047A 		vmov.f32	s14, #1.0e+1
 217 00b4 67EE877A 		vmul.f32	s15, s15, s14
 218              	.LVL21:
 219 00b8 9FED067A 		vldr.32	s14, .L15
 220 00bc 064B     		ldr	r3, .L15+4
 221 00be 67EE877A 		vmul.f32	s15, s15, s14
 222              	.LVL22:
 223 00c2 FEEEC07A 		vcvt.s32.f32	s15, s15, #32
 224 00c6 C3ED027A 		vstr.32	s15, [r3, #8]	@ int
 225 00ca 7047     		bx	lr
 226              	.LVL23:
 227              	.L14:
 228              	.LBE45:
ARM GAS  /var/folders/jh/mykvt1xn5_n17wfcspzg3zpm0000gp/T//ccIA7qED.s 			page 5


 229              	.LBE44:
 230              		.loc 1 83 0
 231 00cc 024B     		ldr	r3, .L15+4
 232 00ce C3ED007A 		vstr.32	s15, [r3]
 233 00d2 7047     		bx	lr
 234              	.L16:
 235              		.align	2
 236              	.L15:
 237 00d4 3EC3AE37 		.word	934200126
 238 00d8 00000000 		.word	.LANCHOR0
 239              		.cfi_endproc
 240              	.LFE281:
 241              		.size	_hook_param, .-_hook_param
 242              		.section	.text.startup,"ax",%progbits
 243              		.align	1
 244              		.thumb
 245              		.thumb_func
 246              		.type	_GLOBAL__sub_I_tremolo_depth, %function
 247              	_GLOBAL__sub_I_tremolo_depth:
 248              	.LFB283:
 249              		.loc 1 88 0
 250              		.cfi_startproc
 251              		@ args = 0, pretend = 0, frame = 0
 252              		@ frame_needed = 0, uses_anonymous_args = 0
 253              		@ link register save eliminated.
 254              	.LVL24:
 255              	.LBB46:
 256              	.LBB47:
 257              	.LBB48:
 258              		.loc 2 69 0
 259 0000 034B     		ldr	r3, .L18
 260 0002 4FF00042 		mov	r2, #-2147483648
 261 0006 5A60     		str	r2, [r3, #4]
 262 0008 0022     		movs	r2, #0
 263 000a 9A60     		str	r2, [r3, #8]
 264              	.LVL25:
 265 000c 7047     		bx	lr
 266              	.L19:
 267 000e 00BF     		.align	2
 268              	.L18:
 269 0010 00000000 		.word	.LANCHOR0
 270              	.LBE48:
 271              	.LBE47:
 272              	.LBE46:
 273              		.cfi_endproc
 274              	.LFE283:
 275              		.size	_GLOBAL__sub_I_tremolo_depth, .-_GLOBAL__sub_I_tremolo_depth
 276              		.section	.init_array,"aw",%init_array
 277              		.align	2
 278 0000 00000000 		.word	_GLOBAL__sub_I_tremolo_depth(target1)
 279              		.global	tremolo_depth
 280              		.bss
 281              		.align	2
 282              		.set	.LANCHOR0,. + 0
 283              		.type	tremolo_depth, %object
 284              		.size	tremolo_depth, 4
 285              	tremolo_depth:
ARM GAS  /var/folders/jh/mykvt1xn5_n17wfcspzg3zpm0000gp/T//ccIA7qED.s 			page 6


 286 0000 00000000 		.space	4
 287              		.type	_ZL3lfo, %object
 288              		.size	_ZL3lfo, 8
 289              	_ZL3lfo:
 290 0004 00000000 		.space	8
 290      00000000 
 291              		.text
 292              	.Letext0:
 293              		.file 4 "/Users/taschke/projects/tremoxd/logue-sdk/tools/gcc/gcc-arm-none-eabi-5_4-2016q3/arm-none
 294              		.file 5 "/Users/taschke/projects/tremoxd/logue-sdk/tools/gcc/gcc-arm-none-eabi-5_4-2016q3/arm-none
 295              		.file 6 "logue-sdk/platform/minilogue-xd/../ext/CMSIS/CMSIS/Include/arm_math.h"
 296              		.file 7 "logue-sdk/platform/minilogue-xd/inc/usermodfx.h"
 297              		.file 8 "logue-sdk/platform/minilogue-xd/inc/fx_api.h"
 298              		.file 9 "logue-sdk/platform/minilogue-xd/inc/osc_api.h"
 299              		.file 10 "logue-sdk/platform/minilogue-xd/inc/userprg.h"