ARM GAS  /var/folders/jh/mykvt1xn5_n17wfcspzg3zpm0000gp/T//ccIA7qED.s 			page 1


   1              		.syntax unified
   2              		.cpu cortex-m4
   3              		.eabi_attribute 27, 1
   4              		.eabi_attribute 28, 1
   5              		.fpu fpv4-sp-d16
   6              		.eabi_attribute 20, 1
   7              		.eabi_attribute 21, 1
   8              		.eabi_attribute 23, 3
   9              		.eabi_attribute 24, 1
  10              		.eabi_attribute 25, 1
  11              		.eabi_attribute 26, 1
  12              		.eabi_attribute 30, 4
  13              		.eabi_attribute 34, 1
  14              		.eabi_attribute 18, 4
  15              		.thumb
  16              		.syntax unified
  17              		.file	"tremoxd.cpp"
  18              		.text
  19              	.Ltext0:
  20              		.cfi_sections	.debug_frame
  21              		.align	1
  22              		.global	_hook_init
  23              		.thumb
  24              		.thumb_func
  25              		.type	_hook_init, %function
  26              	_hook_init:
  27              	.LFB279:
  28              		.file 1 "src/tremoxd.cpp"
  29              		.loc 1 21 0
  30              		.cfi_startproc
  31              		@ args = 0, pretend = 0, frame = 0
  32              		@ frame_needed = 0, uses_anonymous_args = 0
  33              		@ link register save eliminated.
  34              	.LVL0:
  35              		.loc 1 22 0
  36 0000 044B     		ldr	r3, .L2
  37 0002 0022     		movs	r2, #0
  38 0004 1A60     		str	r2, [r3]	@ float
  39              	.LVL1:
  40              	.LBB25:
  41              	.LBB26:
  42              		.file 2 "logue-sdk/platform/minilogue-xd/inc/dsp/simplelfo.hpp"
  43              		.loc 2 91 0
  44 0006 4FF00042 		mov	r2, #-2147483648
  45 000a 5A60     		str	r2, [r3, #4]
  46              	.LVL2:
  47              	.LBE26:
  48              	.LBE25:
  49              	.LBB27:
  50              	.LBB28:
  51              		.loc 2 103 0
  52 000c 0022     		movs	r2, #0
  53 000e 9A60     		str	r2, [r3, #8]
  54              	.LVL3:
  55 0010 7047     		bx	lr
  56              	.L3:
  57 0012 00BF     		.align	2
ARM GAS  /var/folders/jh/mykvt1xn5_n17wfcspzg3zpm0000gp/T//ccIA7qED.s 			page 2


  58              	.L2:
  59 0014 00000000 		.word	.LANCHOR0
  60              	.LBE28:
  61              	.LBE27:
  62              		.cfi_endproc
  63              	.LFE279:
  64              		.size	_hook_init, .-_hook_init
  65              		.align	1
  66              		.global	_hook_process
  67              		.thumb
  68              		.thumb_func
  69              		.type	_hook_process, %function
  70              	_hook_process:
  71              	.LFB280:
  72              		.loc 1 43 0
  73              		.cfi_startproc
  74              		@ args = 4, pretend = 0, frame = 0
  75              		@ frame_needed = 0, uses_anonymous_args = 0
  76              	.LVL4:
  77 0018 F0B5     		push	{r4, r5, r6, r7, lr}
  78              		.cfi_def_cfa_offset 20
  79              		.cfi_offset 4, -20
  80              		.cfi_offset 5, -16
  81              		.cfi_offset 6, -12
  82              		.cfi_offset 7, -8
  83              		.cfi_offset 14, -4
  84 001a 1F4A     		ldr	r2, .L9
  85              	.LVL5:
  86              		.loc 1 52 0
  87 001c 059B     		ldr	r3, [sp, #20]
  88              	.LVL6:
  89 001e 5668     		ldr	r6, [r2, #4]
  90              	.LBB29:
  91              	.LBB30:
  92              	.LBB31:
  93              	.LBB32:
  94              		.loc 2 82 0
  95 0020 9768     		ldr	r7, [r2, #8]
  96              	.LBE32:
  97              	.LBE31:
  98              	.LBB33:
  99              	.LBB34:
 100              		.loc 2 125 0
 101 0022 9FED1E5A 		vldr.32	s10, .L9+4
 102              	.LBE34:
 103              	.LBE33:
 104              	.LBE30:
 105              	.LBE29:
 106              		.loc 1 52 0
 107 0026 DB00     		lsls	r3, r3, #3
 108 0028 01EB030E 		add	lr, r1, r3
 109              	.LVL7:
 110 002c 3546     		mov	r5, r6
 111 002e 1446     		mov	r4, r2
 112              	.LBB43:
 113              	.LBB41:
 114              		.loc 1 60 0
ARM GAS  /var/folders/jh/mykvt1xn5_n17wfcspzg3zpm0000gp/T//ccIA7qED.s 			page 3


 115 0030 F7EE006A 		vmov.f32	s13, #1.0e+0
 116 0034 F1EE005A 		vmov.f32	s11, #4.0e+0
 117              	.LVL8:
 118              	.L6:
 119              	.LBE41:
 120              		.loc 1 56 0
 121 0038 7145     		cmp	r1, lr
 122 003a 07EE905A 		vmov	s15, r5	@ int
 123              	.LVL9:
 124 003e 00F10800 		add	r0, r0, #8
 125 0042 3D44     		add	r5, r5, r7
 126 0044 22D0     		beq	.L5
 127              	.LVL10:
 128              	.LBB42:
 129              	.LBB39:
 130              	.LBB37:
 131              		.loc 2 125 0
 132 0046 F8EEE77A 		vcvt.f32.s32	s15, s15
 133              	.LBE37:
 134              	.LBE39:
 135              		.loc 1 60 0
 136 004a 94ED006A 		vldr.32	s12, [r4]
 137              	.LBB40:
 138              	.LBB38:
 139              		.loc 2 125 0
 140 004e 27EE857A 		vmul.f32	s14, s15, s10
 141              	.LVL11:
 142              	.LBB35:
 143              	.LBB36:
 144              		.file 3 "logue-sdk/platform/minilogue-xd/inc/utils/float_math.h"
 145              		.loc 3 287 0
 146 0052 17EE102A 		vmov	r2, s14	@ int
 147 0056 22F00042 		bic	r2, r2, #-2147483648
 148 005a 07EE902A 		vmov	s15, r2	@ int
 149              	.LBE36:
 150              	.LBE35:
 151              	.LBE38:
 152              	.LBE40:
 153              		.loc 1 60 0
 154 005e 77EEE67A 		vsub.f32	s15, s15, s13
 155 0062 67EE877A 		vmul.f32	s15, s15, s14
 156 0066 B0EE667A 		vmov.f32	s14, s13
 157              	.LVL12:
 158 006a 67EEA57A 		vmul.f32	s15, s15, s11
 159 006e A6EE677A 		vfms.f32	s14, s12, s15
 160 0072 F0EE477A 		vmov.f32	s15, s14
 161 0076 10ED027A 		vldr.32	s14, [r0, #-8]
 162 007a 67EE877A 		vmul.f32	s15, s15, s14
 163              	.LVL13:
 164              		.loc 1 64 0
 165 007e 17EE902A 		vmov	r2, s15
 166 0082 41F8082B 		str	r2, [r1], #8	@ float
 167              	.LVL14:
 168              		.loc 1 65 0
 169 0086 41ED017A 		vstr.32	s15, [r1, #-4]
 170              	.LVL15:
 171 008a D5E7     		b	.L6
ARM GAS  /var/folders/jh/mykvt1xn5_n17wfcspzg3zpm0000gp/T//ccIA7qED.s 			page 4


 172              	.LVL16:
 173              	.L5:
 174 008c DA08     		lsrs	r2, r3, #3
 175 008e 07FB0263 		mla	r3, r7, r2, r6
 176 0092 6360     		str	r3, [r4, #4]
 177 0094 F0BD     		pop	{r4, r5, r6, r7, pc}
 178              	.LVL17:
 179              	.L10:
 180 0096 00BF     		.align	2
 181              	.L9:
 182 0098 00000000 		.word	.LANCHOR0
 183 009c 00000030 		.word	805306368
 184              	.LBE42:
 185              	.LBE43:
 186              		.cfi_endproc
 187              	.LFE280:
 188              		.size	_hook_process, .-_hook_process
 189              		.align	1
 190              		.global	_hook_param
 191              		.thumb
 192              		.thumb_func
 193              		.type	_hook_param, %function
 194              	_hook_param:
 195              	.LFB281:
 196              		.loc 1 76 0
 197              		.cfi_startproc
 198              		@ args = 0, pretend = 0, frame = 0
 199              		@ frame_needed = 0, uses_anonymous_args = 0
 200              		@ link register save eliminated.
 201              	.LVL18:
 202              		.loc 1 77 0
 203 00a0 07EE901A 		vmov	s15, r1	@ int
 204 00a4 FAEEE07A 		vcvt.f32.s32	s15, s15, #31
 205              	.LVL19:
 206              		.loc 1 78 0
 207 00a8 10B1     		cbz	r0, .L13
 208 00aa 0128     		cmp	r0, #1
 209 00ac 0ED0     		beq	.L14
 210 00ae 7047     		bx	lr
 211              	.L13:
 212              	.LVL20:
 213              	.LBB44:
 214              	.LBB45:
 215              		.loc 2 103 0
 216 00b0 B2EE047A 		vmov.f32	s14, #1.0e+1
 217 00b4 67EE877A 		vmul.f32	s15, s15, s14
 218              	.LVL21:
 219 00b8 9FED067A 		vldr.32	s14, .L15
 220 00bc 064B     		ldr	r3, .L15+4
 221 00be 67EE877A 		vmul.f32	s15, s15, s14
 222              	.LVL22:
 223 00c2 FEEEC07A 		vcvt.s32.f32	s15, s15, #32
 224 00c6 C3ED027A 		vstr.32	s15, [r3, #8]	@ int
 225 00ca 7047     		bx	lr
 226              	.LVL23:
 227              	.L14:
 228              	.LBE45:
ARM GAS  /var/folders/jh/mykvt1xn5_n17wfcspzg3zpm0000gp/T//ccIA7qED.s 			page 5


 229              	.LBE44:
 230              		.loc 1 83 0
 231 00cc 024B     		ldr	r3, .L15+4
 232 00ce C3ED007A 		vstr.32	s15, [r3]
 233 00d2 7047     		bx	lr
 234              	.L16:
 235              		.align	2
 236              	.L15:
 237 00d4 3EC3AE37 		.word	934200126
 238 00d8 00000000 		.word	.LANCHOR0
 239              		.cfi_endproc
 240              	.LFE281:
 241              		.size	_hook_param, .-_hook_param
 242              		.section	.text.startup,"ax",%progbits
 243              		.align	1
 244              		.thumb
 245              		.thumb_func
 246              		.type	_GLOBAL__sub_I_tremolo_depth, %function
 247              	_GLOBAL__sub_I_tremolo_depth:
 248              	.LFB283:
 249              		.loc 1 88 0
 250              		.cfi_startproc
 251              		@ args = 0, pretend = 0, frame = 0
 252              		@ frame_needed = 0, uses_anonymous_args = 0
 253              		@ link register save eliminated.
 254              	.LVL24:
 255              	.LBB46:
 256              	.LBB47:
 257              	.LBB48:
 258              		.loc 2 69 0
 259 0000 034B     		ldr	r3, .L18
 260 0002 4FF00042 		mov	r2, #-2147483648
 261 0006 5A60     		str	r2, [r3, #4]
 262 0008 0022     		movs	r2, #0
 263 000a 9A60     		str	r2, [r3, #8]
 264              	.LVL25:
 265 000c 7047     		bx	lr
 266              	.L19:
 267 000e 00BF     		.align	2
 268              	.L18:
 269 0010 00000000 		.word	.LANCHOR0
 270              	.LBE48:
 271              	.LBE47:
 272              	.LBE46:
 273              		.cfi_endproc
 274              	.LFE283:
 275              		.size	_GLOBAL__sub_I_tremolo_depth, .-_GLOBAL__sub_I_tremolo_depth
 276              		.section	.init_array,"aw",%init_array
 277              		.align	2
 278 0000 00000000 		.word	_GLOBAL__sub_I_tremolo_depth(target1)
 279              		.global	tremolo_depth
 280              		.bss
 281              		.align	2
 282              		.set	.LANCHOR0,. + 0
 283              		.type	tremolo_depth, %object
 284              		.size	tremolo_depth, 4
 285              	tremolo_depth:
ARM GAS  /var/folders/jh/mykvt1xn5_n17wfcspzg3zpm0000gp/T//ccIA7qED.s 			page 6


 286 0000 00000000 		.space	4
 287              		.type	_ZL3lfo, %object
 288              		.size	_ZL3lfo, 8
 289              	_ZL3lfo:
 290 0004 00000000 		.space	8
 290      00000000 
 291              		.text
 292              	.Letext0:
 293              		.file 4 "/Users/taschke/projects/tremoxd/logue-sdk/tools/gcc/gcc-arm-none-eabi-5_4-2016q3/arm-none
 294              		.file 5 "/Users/taschke/projects/tremoxd/logue-sdk/tools/gcc/gcc-arm-none-eabi-5_4-2016q3/arm-none
 295              		.file 6 "logue-sdk/platform/minilogue-xd/../ext/CMSIS/CMSIS/Include/arm_math.h"
 296              		.file 7 "logue-sdk/platform/minilogue-xd/inc/usermodfx.h"
 297              		.file 8 "logue-sdk/platform/minilogue-xd/inc/fx_api.h"
 298              		.file 9 "logue-sdk/platform/minilogue-xd/inc/osc_api.h"
 299              		.file 10 "logue-sdk/platform/minilogue-xd/inc/userprg.h"
 300              		.section	.debug_info,"",%progbits
 301              	.Ldebug_info0:
 302 0000 BD080000 		.4byte	0x8bd
 303 0004 0400     		.2byte	0x4
 304 0006 00000000 		.4byte	.Ldebug_abbrev0
 305 000a 04       		.byte	0x4
 306 000b 01       		.uleb128 0x1
 307 000c 7A000000 		.4byte	.LASF111
 308 0010 04       		.byte	0x4
 309 0011 B6010000 		.4byte	.LASF112
 310 0015 2D080000 		.4byte	.LASF113
 311 0019 40000000 		.4byte	.Ldebug_ranges0+0x40
 312 001d 00000000 		.4byte	0
 313 0021 00000000 		.4byte	.Ldebug_line0
 314 0025 02       		.uleb128 0x2
 315 0026 04       		.byte	0x4
 316 0027 04       		.byte	0x4
 317 0028 44020000 		.4byte	.LASF0
 318 002c 03       		.uleb128 0x3
 319 002d 04       		.byte	0x4
 320 002e 05       		.byte	0x5
 321 002f 696E7400 		.ascii	"int\000"
 322 0033 02       		.uleb128 0x2
 323 0034 01       		.byte	0x1
 324 0035 06       		.byte	0x6
 325 0036 C9070000 		.4byte	.LASF1
 326 003a 04       		.uleb128 0x4
 327 003b BC060000 		.4byte	.LASF5
 328 003f 04       		.byte	0x4
 329 0040 1D       		.byte	0x1d
 330 0041 45000000 		.4byte	0x45
 331 0045 02       		.uleb128 0x2
 332 0046 01       		.byte	0x1
 333 0047 08       		.byte	0x8
 334 0048 3E070000 		.4byte	.LASF2
 335 004c 02       		.uleb128 0x2
 336 004d 02       		.byte	0x2
 337 004e 05       		.byte	0x5
 338 004f F9050000 		.4byte	.LASF3
 339 0053 02       		.uleb128 0x2
 340 0054 02       		.byte	0x2
 341 0055 07       		.byte	0x7
ARM GAS  /var/folders/jh/mykvt1xn5_n17wfcspzg3zpm0000gp/T//ccIA7qED.s 			page 7


 342 0056 D5070000 		.4byte	.LASF4
 343 005a 04       		.uleb128 0x4
 344 005b AC010000 		.4byte	.LASF6
 345 005f 04       		.byte	0x4
 346 0060 3F       		.byte	0x3f
 347 0061 65000000 		.4byte	0x65
 348 0065 02       		.uleb128 0x2
 349 0066 04       		.byte	0x4
 350 0067 05       		.byte	0x5
 351 0068 2F060000 		.4byte	.LASF7
 352 006c 04       		.uleb128 0x4
 353 006d 4C070000 		.4byte	.LASF8
 354 0071 04       		.byte	0x4
 355 0072 41       		.byte	0x41
 356 0073 77000000 		.4byte	0x77
 357 0077 02       		.uleb128 0x2
 358 0078 04       		.byte	0x4
 359 0079 07       		.byte	0x7
 360 007a F9060000 		.4byte	.LASF9
 361 007e 02       		.uleb128 0x2
 362 007f 08       		.byte	0x8
 363 0080 05       		.byte	0x5
 364 0081 5C040000 		.4byte	.LASF10
 365 0085 02       		.uleb128 0x2
 366 0086 08       		.byte	0x8
 367 0087 07       		.byte	0x7
 368 0088 7E020000 		.4byte	.LASF11
 369 008c 02       		.uleb128 0x2
 370 008d 04       		.byte	0x4
 371 008e 07       		.byte	0x7
 372 008f 92010000 		.4byte	.LASF12
 373 0093 04       		.uleb128 0x4
 374 0094 0D040000 		.4byte	.LASF13
 375 0098 05       		.byte	0x5
 376 0099 18       		.byte	0x18
 377 009a 3A000000 		.4byte	0x3a
 378 009e 04       		.uleb128 0x4
 379 009f 1F070000 		.4byte	.LASF14
 380 00a3 05       		.byte	0x5
 381 00a4 2C       		.byte	0x2c
 382 00a5 5A000000 		.4byte	0x5a
 383 00a9 04       		.uleb128 0x4
 384 00aa EB010000 		.4byte	.LASF15
 385 00ae 05       		.byte	0x5
 386 00af 30       		.byte	0x30
 387 00b0 6C000000 		.4byte	0x6c
 388 00b4 02       		.uleb128 0x2
 389 00b5 08       		.byte	0x8
 390 00b6 04       		.byte	0x4
 391 00b7 73050000 		.4byte	.LASF16
 392 00bb 05       		.uleb128 0x5
 393 00bc 7D070000 		.4byte	.LASF114
 394 00c0 02       		.uleb128 0x2
 395 00c1 04       		.byte	0x4
 396 00c2 07       		.byte	0x7
 397 00c3 F0060000 		.4byte	.LASF17
 398 00c7 02       		.uleb128 0x2
ARM GAS  /var/folders/jh/mykvt1xn5_n17wfcspzg3zpm0000gp/T//ccIA7qED.s 			page 8


 399 00c8 01       		.byte	0x1
 400 00c9 08       		.byte	0x8
 401 00ca 8C030000 		.4byte	.LASF18
 402 00ce 02       		.uleb128 0x2
 403 00cf 08       		.byte	0x8
 404 00d0 04       		.byte	0x4
 405 00d1 06080000 		.4byte	.LASF19
 406 00d5 06       		.uleb128 0x6
 407 00d6 04       		.byte	0x4
 408 00d7 03       		.byte	0x3
 409 00d8 A1       		.byte	0xa1
 410 00d9 3E050000 		.4byte	.LASF115
 411 00dd F4000000 		.4byte	0xf4
 412 00e1 07       		.uleb128 0x7
 413 00e2 6600     		.ascii	"f\000"
 414 00e4 03       		.byte	0x3
 415 00e5 A2       		.byte	0xa2
 416 00e6 25000000 		.4byte	0x25
 417 00ea 07       		.uleb128 0x7
 418 00eb 6900     		.ascii	"i\000"
 419 00ed 03       		.byte	0x3
 420 00ee A3       		.byte	0xa3
 421 00ef A9000000 		.4byte	0xa9
 422 00f3 00       		.byte	0
 423 00f4 04       		.uleb128 0x4
 424 00f5 00000000 		.4byte	.LASF20
 425 00f9 03       		.byte	0x3
 426 00fa A4       		.byte	0xa4
 427 00fb D5000000 		.4byte	0xd5
 428 00ff 08       		.uleb128 0x8
 429 0100 E5060000 		.4byte	.LASF21
 430 0104 06       		.byte	0x6
 431 0105 8D01     		.2byte	0x18d
 432 0107 9E000000 		.4byte	0x9e
 433 010b 09       		.uleb128 0x9
 434 010c 01       		.byte	0x1
 435 010d 45000000 		.4byte	0x45
 436 0111 0A       		.byte	0xa
 437 0112 35       		.byte	0x35
 438 0113 3C010000 		.4byte	0x13c
 439 0117 0A       		.uleb128 0xa
 440 0118 68070000 		.4byte	.LASF22
 441 011c 00       		.byte	0
 442 011d 0A       		.uleb128 0xa
 443 011e 69060000 		.4byte	.LASF23
 444 0122 01       		.byte	0x1
 445 0123 0A       		.uleb128 0xa
 446 0124 50020000 		.4byte	.LASF24
 447 0128 02       		.byte	0x2
 448 0129 0A       		.uleb128 0xa
 449 012a DC020000 		.4byte	.LASF25
 450 012e 03       		.byte	0x3
 451 012f 0A       		.uleb128 0xa
 452 0130 61050000 		.4byte	.LASF26
 453 0134 04       		.byte	0x4
 454 0135 0A       		.uleb128 0xa
 455 0136 E7040000 		.4byte	.LASF27
ARM GAS  /var/folders/jh/mykvt1xn5_n17wfcspzg3zpm0000gp/T//ccIA7qED.s 			page 9


 456 013a 05       		.byte	0x5
 457 013b 00       		.byte	0
 458 013c 0B       		.uleb128 0xb
 459 013d 01       		.byte	0x1
 460 013e 45000000 		.4byte	0x45
 461 0142 07       		.byte	0x7
 462 0143 44       		.byte	0x44
 463 0144 41000000 		.4byte	.LASF116
 464 0148 5F010000 		.4byte	0x15f
 465 014c 0A       		.uleb128 0xa
 466 014d 6A040000 		.4byte	.LASF28
 467 0151 00       		.byte	0
 468 0152 0A       		.uleb128 0xa
 469 0153 82040000 		.4byte	.LASF29
 470 0157 01       		.byte	0x1
 471 0158 0A       		.uleb128 0xa
 472 0159 03030000 		.4byte	.LASF30
 473 015d 02       		.byte	0x2
 474 015e 00       		.byte	0
 475 015f 04       		.uleb128 0x4
 476 0160 E1030000 		.4byte	.LASF31
 477 0164 07       		.byte	0x7
 478 0165 4A       		.byte	0x4a
 479 0166 3C010000 		.4byte	0x13c
 480 016a 0C       		.uleb128 0xc
 481 016b 04       		.byte	0x4
 482 016c 70010000 		.4byte	0x170
 483 0170 0D       		.uleb128 0xd
 484 0171 25000000 		.4byte	0x25
 485 0175 0C       		.uleb128 0xc
 486 0176 04       		.byte	0x4
 487 0177 25000000 		.4byte	0x25
 488 017b 0E       		.uleb128 0xe
 489 017c 64737000 		.ascii	"dsp\000"
 490 0180 02       		.byte	0x2
 491 0181 32       		.byte	0x32
 492 0182 31040000 		.4byte	0x431
 493 0186 0F       		.uleb128 0xf
 494 0187 84080000 		.4byte	.LASF41
 495 018b 08       		.byte	0x8
 496 018c 02       		.byte	0x2
 497 018d 37       		.byte	0x37
 498 018e 10       		.uleb128 0x10
 499 018f 40030000 		.4byte	.LASF32
 500 0193 02       		.byte	0x2
 501 0194 2A01     		.2byte	0x12a
 502 0196 FF000000 		.4byte	0xff
 503 019a 00       		.byte	0
 504 019b 11       		.uleb128 0x11
 505 019c 773000   		.ascii	"w0\000"
 506 019f 02       		.byte	0x2
 507 01a0 2B01     		.2byte	0x12b
 508 01a2 FF000000 		.4byte	0xff
 509 01a6 04       		.byte	0x4
 510 01a7 12       		.uleb128 0x12
 511 01a8 84080000 		.4byte	.LASF41
 512 01ac 02       		.byte	0x2
ARM GAS  /var/folders/jh/mykvt1xn5_n17wfcspzg3zpm0000gp/T//ccIA7qED.s 			page 10


 513 01ad 44       		.byte	0x44
 514 01ae 2A030000 		.4byte	.LASF43
 515 01b2 31040000 		.4byte	0x431
 516 01b6 BE010000 		.4byte	0x1be
 517 01ba C4010000 		.4byte	0x1c4
 518 01be 13       		.uleb128 0x13
 519 01bf 31040000 		.4byte	0x431
 520 01c3 00       		.byte	0
 521 01c4 14       		.uleb128 0x14
 522 01c5 7D060000 		.4byte	.LASF33
 523 01c9 02       		.byte	0x2
 524 01ca 50       		.byte	0x50
 525 01cb 3E060000 		.4byte	.LASF35
 526 01cf D7010000 		.4byte	0x1d7
 527 01d3 DD010000 		.4byte	0x1dd
 528 01d7 13       		.uleb128 0x13
 529 01d8 31040000 		.4byte	0x431
 530 01dc 00       		.byte	0
 531 01dd 14       		.uleb128 0x14
 532 01de B6060000 		.4byte	.LASF34
 533 01e2 02       		.byte	0x2
 534 01e3 59       		.byte	0x59
 535 01e4 64020000 		.4byte	.LASF36
 536 01e8 F0010000 		.4byte	0x1f0
 537 01ec F6010000 		.4byte	0x1f6
 538 01f0 13       		.uleb128 0x13
 539 01f1 31040000 		.4byte	0x431
 540 01f5 00       		.byte	0
 541 01f6 14       		.uleb128 0x14
 542 01f7 38060000 		.4byte	.LASF37
 543 01fb 02       		.byte	0x2
 544 01fc 65       		.byte	0x65
 545 01fd 15040000 		.4byte	.LASF38
 546 0201 09020000 		.4byte	0x209
 547 0205 19020000 		.4byte	0x219
 548 0209 13       		.uleb128 0x13
 549 020a 31040000 		.4byte	0x431
 550 020e 15       		.uleb128 0x15
 551 020f 25000000 		.4byte	0x25
 552 0213 15       		.uleb128 0x15
 553 0214 25000000 		.4byte	0x25
 554 0218 00       		.byte	0
 555 0219 14       		.uleb128 0x14
 556 021a 19070000 		.4byte	.LASF39
 557 021e 02       		.byte	0x2
 558 021f 70       		.byte	0x70
 559 0220 72030000 		.4byte	.LASF40
 560 0224 2C020000 		.4byte	0x22c
 561 0228 37020000 		.4byte	0x237
 562 022c 13       		.uleb128 0x13
 563 022d 31040000 		.4byte	0x431
 564 0231 15       		.uleb128 0x15
 565 0232 25000000 		.4byte	0x25
 566 0236 00       		.byte	0
 567 0237 12       		.uleb128 0x12
 568 0238 F0020000 		.4byte	.LASF42
 569 023c 02       		.byte	0x2
ARM GAS  /var/folders/jh/mykvt1xn5_n17wfcspzg3zpm0000gp/T//ccIA7qED.s 			page 11


 570 023d 7B       		.byte	0x7b
 571 023e 9F020000 		.4byte	.LASF44
 572 0242 25000000 		.4byte	0x25
 573 0246 4E020000 		.4byte	0x24e
 574 024a 54020000 		.4byte	0x254
 575 024e 13       		.uleb128 0x13
 576 024f 31040000 		.4byte	0x431
 577 0253 00       		.byte	0
 578 0254 12       		.uleb128 0x12
 579 0255 83060000 		.4byte	.LASF45
 580 0259 02       		.byte	0x2
 581 025a 85       		.byte	0x85
 582 025b 08020000 		.4byte	.LASF46
 583 025f 25000000 		.4byte	0x25
 584 0263 6B020000 		.4byte	0x26b
 585 0267 71020000 		.4byte	0x271
 586 026b 13       		.uleb128 0x13
 587 026c 31040000 		.4byte	0x431
 588 0270 00       		.byte	0
 589 0271 12       		.uleb128 0x12
 590 0272 D0020000 		.4byte	.LASF47
 591 0276 02       		.byte	0x2
 592 0277 91       		.byte	0x91
 593 0278 1D050000 		.4byte	.LASF48
 594 027c 25000000 		.4byte	0x25
 595 0280 88020000 		.4byte	0x288
 596 0284 93020000 		.4byte	0x293
 597 0288 13       		.uleb128 0x13
 598 0289 31040000 		.4byte	0x431
 599 028d 15       		.uleb128 0x15
 600 028e 25000000 		.4byte	0x25
 601 0292 00       		.byte	0
 602 0293 12       		.uleb128 0x12
 603 0294 D8060000 		.4byte	.LASF49
 604 0298 02       		.byte	0x2
 605 0299 9D       		.byte	0x9d
 606 029a 30040000 		.4byte	.LASF50
 607 029e 25000000 		.4byte	0x25
 608 02a2 AA020000 		.4byte	0x2aa
 609 02a6 B5020000 		.4byte	0x2b5
 610 02aa 13       		.uleb128 0x13
 611 02ab 31040000 		.4byte	0x431
 612 02af 15       		.uleb128 0x15
 613 02b0 25000000 		.4byte	0x25
 614 02b4 00       		.byte	0
 615 02b5 12       		.uleb128 0x12
 616 02b6 AE050000 		.4byte	.LASF51
 617 02ba 02       		.byte	0x2
 618 02bb A8       		.byte	0xa8
 619 02bc 59000000 		.4byte	.LASF52
 620 02c0 25000000 		.4byte	0x25
 621 02c4 CC020000 		.4byte	0x2cc
 622 02c8 D2020000 		.4byte	0x2d2
 623 02cc 13       		.uleb128 0x13
 624 02cd 31040000 		.4byte	0x431
 625 02d1 00       		.byte	0
 626 02d2 12       		.uleb128 0x12
ARM GAS  /var/folders/jh/mykvt1xn5_n17wfcspzg3zpm0000gp/T//ccIA7qED.s 			page 12


 627 02d3 4D080000 		.4byte	.LASF53
 628 02d7 02       		.byte	0x2
 629 02d8 B1       		.byte	0xb1
 630 02d9 06000000 		.4byte	.LASF54
 631 02dd 25000000 		.4byte	0x25
 632 02e1 E9020000 		.4byte	0x2e9
 633 02e5 EF020000 		.4byte	0x2ef
 634 02e9 13       		.uleb128 0x13
 635 02ea 31040000 		.4byte	0x431
 636 02ee 00       		.byte	0
 637 02ef 12       		.uleb128 0x12
 638 02f0 9C030000 		.4byte	.LASF55
 639 02f4 02       		.byte	0x2
 640 02f5 BC       		.byte	0xbc
 641 02f6 8C060000 		.4byte	.LASF56
 642 02fa 25000000 		.4byte	0x25
 643 02fe 06030000 		.4byte	0x306
 644 0302 11030000 		.4byte	0x311
 645 0306 13       		.uleb128 0x13
 646 0307 31040000 		.4byte	0x431
 647 030b 15       		.uleb128 0x15
 648 030c 25000000 		.4byte	0x25
 649 0310 00       		.byte	0
 650 0311 12       		.uleb128 0x12
 651 0312 57070000 		.4byte	.LASF57
 652 0316 02       		.byte	0x2
 653 0317 C8       		.byte	0xc8
 654 0318 C8050000 		.4byte	.LASF58
 655 031c 25000000 		.4byte	0x25
 656 0320 28030000 		.4byte	0x328
 657 0324 33030000 		.4byte	0x333
 658 0328 13       		.uleb128 0x13
 659 0329 31040000 		.4byte	0x431
 660 032d 15       		.uleb128 0x15
 661 032e 25000000 		.4byte	0x25
 662 0332 00       		.byte	0
 663 0333 12       		.uleb128 0x12
 664 0334 E4010000 		.4byte	.LASF59
 665 0338 02       		.byte	0x2
 666 0339 D3       		.byte	0xd3
 667 033a 02050000 		.4byte	.LASF60
 668 033e 25000000 		.4byte	0x25
 669 0342 4A030000 		.4byte	0x34a
 670 0346 50030000 		.4byte	0x350
 671 034a 13       		.uleb128 0x13
 672 034b 31040000 		.4byte	0x431
 673 034f 00       		.byte	0
 674 0350 12       		.uleb128 0x12
 675 0351 FA040000 		.4byte	.LASF61
 676 0355 02       		.byte	0x2
 677 0356 DC       		.byte	0xdc
 678 0357 68080000 		.4byte	.LASF62
 679 035b 25000000 		.4byte	0x25
 680 035f 67030000 		.4byte	0x367
 681 0363 6D030000 		.4byte	0x36d
 682 0367 13       		.uleb128 0x13
 683 0368 31040000 		.4byte	0x431
ARM GAS  /var/folders/jh/mykvt1xn5_n17wfcspzg3zpm0000gp/T//ccIA7qED.s 			page 13


 684 036c 00       		.byte	0
 685 036d 12       		.uleb128 0x12
 686 036e BE070000 		.4byte	.LASF63
 687 0372 02       		.byte	0x2
 688 0373 E7       		.byte	0xe7
 689 0374 0D080000 		.4byte	.LASF64
 690 0378 25000000 		.4byte	0x25
 691 037c 84030000 		.4byte	0x384
 692 0380 8F030000 		.4byte	0x38f
 693 0384 13       		.uleb128 0x13
 694 0385 31040000 		.4byte	0x431
 695 0389 15       		.uleb128 0x15
 696 038a 25000000 		.4byte	0x25
 697 038e 00       		.byte	0
 698 038f 12       		.uleb128 0x12
 699 0390 45030000 		.4byte	.LASF65
 700 0394 02       		.byte	0x2
 701 0395 F3       		.byte	0xf3
 702 0396 51030000 		.4byte	.LASF66
 703 039a 25000000 		.4byte	0x25
 704 039e A6030000 		.4byte	0x3a6
 705 03a2 B1030000 		.4byte	0x3b1
 706 03a6 13       		.uleb128 0x13
 707 03a7 31040000 		.4byte	0x431
 708 03ab 15       		.uleb128 0x15
 709 03ac 25000000 		.4byte	0x25
 710 03b0 00       		.byte	0
 711 03b1 16       		.uleb128 0x16
 712 03b2 95020000 		.4byte	.LASF67
 713 03b6 02       		.byte	0x2
 714 03b7 0001     		.2byte	0x100
 715 03b9 E8070000 		.4byte	.LASF69
 716 03bd 25000000 		.4byte	0x25
 717 03c1 C9030000 		.4byte	0x3c9
 718 03c5 CF030000 		.4byte	0x3cf
 719 03c9 13       		.uleb128 0x13
 720 03ca 31040000 		.4byte	0x431
 721 03ce 00       		.byte	0
 722 03cf 16       		.uleb128 0x16
 723 03d0 8F070000 		.4byte	.LASF68
 724 03d4 02       		.byte	0x2
 725 03d5 0901     		.2byte	0x109
 726 03d7 C0040000 		.4byte	.LASF70
 727 03db 25000000 		.4byte	0x25
 728 03df E7030000 		.4byte	0x3e7
 729 03e3 ED030000 		.4byte	0x3ed
 730 03e7 13       		.uleb128 0x13
 731 03e8 31040000 		.4byte	0x431
 732 03ec 00       		.byte	0
 733 03ed 16       		.uleb128 0x16
 734 03ee 36020000 		.4byte	.LASF71
 735 03f2 02       		.byte	0x2
 736 03f3 1401     		.2byte	0x114
 737 03f5 BE030000 		.4byte	.LASF72
 738 03f9 25000000 		.4byte	0x25
 739 03fd 05040000 		.4byte	0x405
 740 0401 10040000 		.4byte	0x410
ARM GAS  /var/folders/jh/mykvt1xn5_n17wfcspzg3zpm0000gp/T//ccIA7qED.s 			page 14


 741 0405 13       		.uleb128 0x13
 742 0406 31040000 		.4byte	0x431
 743 040a 15       		.uleb128 0x15
 744 040b 25000000 		.4byte	0x25
 745 040f 00       		.byte	0
 746 0410 17       		.uleb128 0x17
 747 0411 27070000 		.4byte	.LASF73
 748 0415 02       		.byte	0x2
 749 0416 2001     		.2byte	0x120
 750 0418 9A070000 		.4byte	.LASF117
 751 041c 25000000 		.4byte	0x25
 752 0420 24040000 		.4byte	0x424
 753 0424 13       		.uleb128 0x13
 754 0425 31040000 		.4byte	0x431
 755 0429 15       		.uleb128 0x15
 756 042a 25000000 		.4byte	0x25
 757 042e 00       		.byte	0
 758 042f 00       		.byte	0
 759 0430 00       		.byte	0
 760 0431 0C       		.uleb128 0xc
 761 0432 04       		.byte	0x4
 762 0433 86010000 		.4byte	0x186
 763 0437 18       		.uleb128 0x18
 764 0438 A7010000 		.4byte	0x1a7
 765 043c 03       		.byte	0x3
 766 043d 45040000 		.4byte	0x445
 767 0441 4F040000 		.4byte	0x44f
 768 0445 19       		.uleb128 0x19
 769 0446 7F050000 		.4byte	.LASF74
 770 044a 4F040000 		.4byte	0x44f
 771 044e 00       		.byte	0
 772 044f 0D       		.uleb128 0xd
 773 0450 31040000 		.4byte	0x431
 774 0454 1A       		.uleb128 0x1a
 775 0455 CF010000 		.4byte	.LASF118
 776 0459 03       		.byte	0x3
 777 045a 1C01     		.2byte	0x11c
 778 045c 25000000 		.4byte	0x25
 779 0460 03       		.byte	0x3
 780 0461 7B040000 		.4byte	0x47b
 781 0465 1B       		.uleb128 0x1b
 782 0466 7800     		.ascii	"x\000"
 783 0468 03       		.byte	0x3
 784 0469 1C01     		.2byte	0x11c
 785 046b 25000000 		.4byte	0x25
 786 046f 1C       		.uleb128 0x1c
 787 0470 787300   		.ascii	"xs\000"
 788 0473 03       		.byte	0x3
 789 0474 1E01     		.2byte	0x11e
 790 0476 F4000000 		.4byte	0xf4
 791 047a 00       		.byte	0
 792 047b 18       		.uleb128 0x18
 793 047c F6010000 		.4byte	0x1f6
 794 0480 03       		.byte	0x3
 795 0481 89040000 		.4byte	0x489
 796 0485 A8040000 		.4byte	0x4a8
 797 0489 19       		.uleb128 0x19
ARM GAS  /var/folders/jh/mykvt1xn5_n17wfcspzg3zpm0000gp/T//ccIA7qED.s 			page 15


 798 048a 7F050000 		.4byte	.LASF74
 799 048e 4F040000 		.4byte	0x44f
 800 0492 1D       		.uleb128 0x1d
 801 0493 663000   		.ascii	"f0\000"
 802 0496 02       		.byte	0x2
 803 0497 65       		.byte	0x65
 804 0498 70010000 		.4byte	0x170
 805 049c 1E       		.uleb128 0x1e
 806 049d 36070000 		.4byte	.LASF75
 807 04a1 02       		.byte	0x2
 808 04a2 65       		.byte	0x65
 809 04a3 70010000 		.4byte	0x170
 810 04a7 00       		.byte	0
 811 04a8 18       		.uleb128 0x18
 812 04a9 DD010000 		.4byte	0x1dd
 813 04ad 03       		.byte	0x3
 814 04ae B6040000 		.4byte	0x4b6
 815 04b2 C0040000 		.4byte	0x4c0
 816 04b6 19       		.uleb128 0x19
 817 04b7 7F050000 		.4byte	.LASF74
 818 04bb 4F040000 		.4byte	0x44f
 819 04bf 00       		.byte	0
 820 04c0 18       		.uleb128 0x18
 821 04c1 C4010000 		.4byte	0x1c4
 822 04c5 03       		.byte	0x3
 823 04c6 CE040000 		.4byte	0x4ce
 824 04ca D8040000 		.4byte	0x4d8
 825 04ce 19       		.uleb128 0x19
 826 04cf 7F050000 		.4byte	.LASF74
 827 04d3 4F040000 		.4byte	0x44f
 828 04d7 00       		.byte	0
 829 04d8 18       		.uleb128 0x18
 830 04d9 37020000 		.4byte	0x237
 831 04dd 03       		.byte	0x3
 832 04de E6040000 		.4byte	0x4e6
 833 04e2 FB040000 		.4byte	0x4fb
 834 04e6 19       		.uleb128 0x19
 835 04e7 7F050000 		.4byte	.LASF74
 836 04eb 4F040000 		.4byte	0x44f
 837 04ef 1F       		.uleb128 0x1f
 838 04f0 B1060000 		.4byte	.LASF76
 839 04f4 02       		.byte	0x2
 840 04f5 7D       		.byte	0x7d
 841 04f6 70010000 		.4byte	0x170
 842 04fa 00       		.byte	0
 843 04fb 20       		.uleb128 0x20
 844 04fc 84050000 		.4byte	.LASF119
 845 0500 01       		.byte	0x1
 846 0501 1C050000 		.4byte	0x51c
 847 0505 1E       		.uleb128 0x1e
 848 0506 C1020000 		.4byte	.LASF77
 849 050a 01       		.byte	0x1
 850 050b 58       		.byte	0x58
 851 050c 2C000000 		.4byte	0x2c
 852 0510 1E       		.uleb128 0x1e
 853 0511 F8020000 		.4byte	.LASF78
 854 0515 01       		.byte	0x1
ARM GAS  /var/folders/jh/mykvt1xn5_n17wfcspzg3zpm0000gp/T//ccIA7qED.s 			page 16


 855 0516 58       		.byte	0x58
 856 0517 2C000000 		.4byte	0x2c
 857 051b 00       		.byte	0
 858 051c 21       		.uleb128 0x21
 859 051d EE050000 		.4byte	.LASF79
 860 0521 01       		.byte	0x1
 861 0522 14       		.byte	0x14
 862 0523 00000000 		.4byte	.LFB279
 863 0527 18000000 		.4byte	.LFE279-.LFB279
 864 052b 01       		.uleb128 0x1
 865 052c 9C       		.byte	0x9c
 866 052d 94050000 		.4byte	0x594
 867 0531 22       		.uleb128 0x22
 868 0532 C6010000 		.4byte	.LASF80
 869 0536 01       		.byte	0x1
 870 0537 14       		.byte	0x14
 871 0538 A9000000 		.4byte	0xa9
 872 053c 01       		.uleb128 0x1
 873 053d 50       		.byte	0x50
 874 053e 23       		.uleb128 0x23
 875 053f 61706900 		.ascii	"api\000"
 876 0543 01       		.byte	0x1
 877 0544 14       		.byte	0x14
 878 0545 A9000000 		.4byte	0xa9
 879 0549 01       		.uleb128 0x1
 880 054a 51       		.byte	0x51
 881 054b 24       		.uleb128 0x24
 882 054c A8040000 		.4byte	0x4a8
 883 0550 06000000 		.4byte	.LBB25
 884 0554 06000000 		.4byte	.LBE25-.LBB25
 885 0558 01       		.byte	0x1
 886 0559 17       		.byte	0x17
 887 055a 68050000 		.4byte	0x568
 888 055e 25       		.uleb128 0x25
 889 055f B6040000 		.4byte	0x4b6
 890 0563 00000000 		.4byte	.LLST0
 891 0567 00       		.byte	0
 892 0568 26       		.uleb128 0x26
 893 0569 7B040000 		.4byte	0x47b
 894 056d 0C000000 		.4byte	.LBB27
 895 0571 0C000000 		.4byte	.LBE27-.LBB27
 896 0575 01       		.byte	0x1
 897 0576 18       		.byte	0x18
 898 0577 25       		.uleb128 0x25
 899 0578 9C040000 		.4byte	0x49c
 900 057c 18000000 		.4byte	.LLST1
 901 0580 25       		.uleb128 0x25
 902 0581 92040000 		.4byte	0x492
 903 0585 30000000 		.4byte	.LLST2
 904 0589 25       		.uleb128 0x25
 905 058a 89040000 		.4byte	0x489
 906 058e 48000000 		.4byte	.LLST3
 907 0592 00       		.byte	0
 908 0593 00       		.byte	0
 909 0594 21       		.uleb128 0x21
 910 0595 BA050000 		.4byte	.LASF81
 911 0599 01       		.byte	0x1
ARM GAS  /var/folders/jh/mykvt1xn5_n17wfcspzg3zpm0000gp/T//ccIA7qED.s 			page 17


 912 059a 28       		.byte	0x28
 913 059b 18000000 		.4byte	.LFB280
 914 059f 88000000 		.4byte	.LFE280-.LFB280
 915 05a3 01       		.uleb128 0x1
 916 05a4 9C       		.byte	0x9c
 917 05a5 A6060000 		.4byte	0x6a6
 918 05a9 27       		.uleb128 0x27
 919 05aa B8040000 		.4byte	.LASF82
 920 05ae 01       		.byte	0x1
 921 05af 28       		.byte	0x28
 922 05b0 6A010000 		.4byte	0x16a
 923 05b4 60000000 		.4byte	.LLST4
 924 05b8 27       		.uleb128 0x27
 925 05b9 45050000 		.4byte	.LASF83
 926 05bd 01       		.byte	0x1
 927 05be 28       		.byte	0x28
 928 05bf 75010000 		.4byte	0x175
 929 05c3 81000000 		.4byte	.LLST5
 930 05c7 27       		.uleb128 0x27
 931 05c8 E0040000 		.4byte	.LASF84
 932 05cc 01       		.byte	0x1
 933 05cd 29       		.byte	0x29
 934 05ce 6A010000 		.4byte	0x16a
 935 05d2 A2000000 		.4byte	.LLST6
 936 05d6 27       		.uleb128 0x27
 937 05d7 5A050000 		.4byte	.LASF85
 938 05db 01       		.byte	0x1
 939 05dc 29       		.byte	0x29
 940 05dd 75010000 		.4byte	0x175
 941 05e1 C3000000 		.4byte	.LLST7
 942 05e5 27       		.uleb128 0x27
 943 05e6 F7030000 		.4byte	.LASF86
 944 05ea 01       		.byte	0x1
 945 05eb 2A       		.byte	0x2a
 946 05ec A9000000 		.4byte	0xa9
 947 05f0 E4000000 		.4byte	.LLST8
 948 05f4 28       		.uleb128 0x28
 949 05f5 6D7800   		.ascii	"mx\000"
 950 05f8 01       		.byte	0x1
 951 05f9 2E       		.byte	0x2e
 952 05fa 6A010000 		.4byte	0x16a
 953 05fe 04010000 		.4byte	.LLST9
 954 0602 28       		.uleb128 0x28
 955 0603 6D7900   		.ascii	"my\000"
 956 0606 01       		.byte	0x1
 957 0607 31       		.byte	0x31
 958 0608 75010000 		.4byte	0x175
 959 060c 84010000 		.4byte	.LLST10
 960 0610 29       		.uleb128 0x29
 961 0611 EB060000 		.4byte	.LASF87
 962 0615 01       		.byte	0x1
 963 0616 34       		.byte	0x34
 964 0617 6A010000 		.4byte	0x16a
 965 061b 01       		.uleb128 0x1
 966 061c 5E       		.byte	0x5e
 967 061d 2A       		.uleb128 0x2a
 968 061e 1D030000 		.4byte	.LASF88
ARM GAS  /var/folders/jh/mykvt1xn5_n17wfcspzg3zpm0000gp/T//ccIA7qED.s 			page 18


 969 0622 01       		.byte	0x1
 970 0623 36       		.byte	0x36
 971 0624 25000000 		.4byte	0x25
 972 0628 BA010000 		.4byte	.LLST11
 973 062c 2B       		.uleb128 0x2b
 974 062d 00000000 		.4byte	.Ldebug_ranges0+0
 975 0631 1F       		.uleb128 0x1f
 976 0632 F9010000 		.4byte	.LASF89
 977 0636 01       		.byte	0x1
 978 0637 3A       		.byte	0x3a
 979 0638 25000000 		.4byte	0x25
 980 063c 24       		.uleb128 0x24
 981 063d C0040000 		.4byte	0x4c0
 982 0641 20000000 		.4byte	.LBB31
 983 0645 02000000 		.4byte	.LBE31-.LBB31
 984 0649 01       		.byte	0x1
 985 064a 43       		.byte	0x43
 986 064b 59060000 		.4byte	0x659
 987 064f 25       		.uleb128 0x25
 988 0650 CE040000 		.4byte	0x4ce
 989 0654 CE010000 		.4byte	.LLST12
 990 0658 00       		.byte	0
 991 0659 2C       		.uleb128 0x2c
 992 065a D8040000 		.4byte	0x4d8
 993 065e 22000000 		.4byte	.LBB33
 994 0662 20000000 		.4byte	.Ldebug_ranges0+0x20
 995 0666 01       		.byte	0x1
 996 0667 3A       		.byte	0x3a
 997 0668 25       		.uleb128 0x25
 998 0669 E6040000 		.4byte	0x4e6
 999 066d E6010000 		.4byte	.LLST13
 1000 0671 2B       		.uleb128 0x2b
 1001 0672 20000000 		.4byte	.Ldebug_ranges0+0x20
 1002 0676 2D       		.uleb128 0x2d
 1003 0677 EF040000 		.4byte	0x4ef
 1004 067b 02       		.uleb128 0x2
 1005 067c 90       		.byte	0x90
 1006 067d 4E       		.uleb128 0x4e
 1007 067e 26       		.uleb128 0x26
 1008 067f 54040000 		.4byte	0x454
 1009 0683 52000000 		.4byte	.LBB35
 1010 0687 0C000000 		.4byte	.LBE35-.LBB35
 1011 068b 02       		.byte	0x2
 1012 068c 7E       		.byte	0x7e
 1013 068d 2E       		.uleb128 0x2e
 1014 068e 65040000 		.4byte	0x465
 1015 0692 2F       		.uleb128 0x2f
 1016 0693 52000000 		.4byte	.LBB36
 1017 0697 0C000000 		.4byte	.LBE36-.LBB36
 1018 069b 30       		.uleb128 0x30
 1019 069c 6F040000 		.4byte	0x46f
 1020 06a0 00       		.byte	0
 1021 06a1 00       		.byte	0
 1022 06a2 00       		.byte	0
 1023 06a3 00       		.byte	0
 1024 06a4 00       		.byte	0
 1025 06a5 00       		.byte	0
ARM GAS  /var/folders/jh/mykvt1xn5_n17wfcspzg3zpm0000gp/T//ccIA7qED.s 			page 19


 1026 06a6 21       		.uleb128 0x21
 1027 06a7 28000000 		.4byte	.LASF90
 1028 06ab 01       		.byte	0x1
 1029 06ac 4B       		.byte	0x4b
 1030 06ad A0000000 		.4byte	.LFB281
 1031 06b1 3C000000 		.4byte	.LFE281-.LFB281
 1032 06b5 01       		.uleb128 0x1
 1033 06b6 9C       		.byte	0x9c
 1034 06b7 10070000 		.4byte	0x710
 1035 06bb 22       		.uleb128 0x22
 1036 06bc 4A020000 		.4byte	.LASF91
 1037 06c0 01       		.byte	0x1
 1038 06c1 4B       		.byte	0x4b
 1039 06c2 93000000 		.4byte	0x93
 1040 06c6 01       		.uleb128 0x1
 1041 06c7 50       		.byte	0x50
 1042 06c8 22       		.uleb128 0x22
 1043 06c9 BB020000 		.4byte	.LASF92
 1044 06cd 01       		.byte	0x1
 1045 06ce 4B       		.byte	0x4b
 1046 06cf 9E000000 		.4byte	0x9e
 1047 06d3 01       		.uleb128 0x1
 1048 06d4 51       		.byte	0x51
 1049 06d5 2A       		.uleb128 0x2a
 1050 06d6 F4010000 		.4byte	.LASF93
 1051 06da 01       		.byte	0x1
 1052 06db 4D       		.byte	0x4d
 1053 06dc 70010000 		.4byte	0x170
 1054 06e0 FE010000 		.4byte	.LLST14
 1055 06e4 26       		.uleb128 0x26
 1056 06e5 7B040000 		.4byte	0x47b
 1057 06e9 B0000000 		.4byte	.LBB44
 1058 06ed 1C000000 		.4byte	.LBE44-.LBB44
 1059 06f1 01       		.byte	0x1
 1060 06f2 50       		.byte	0x50
 1061 06f3 25       		.uleb128 0x25
 1062 06f4 9C040000 		.4byte	0x49c
 1063 06f8 37020000 		.4byte	.LLST15
 1064 06fc 25       		.uleb128 0x25
 1065 06fd 92040000 		.4byte	0x492
 1066 0701 4F020000 		.4byte	.LLST16
 1067 0705 25       		.uleb128 0x25
 1068 0706 89040000 		.4byte	0x489
 1069 070a 9A020000 		.4byte	.LLST17
 1070 070e 00       		.byte	0
 1071 070f 00       		.byte	0
 1072 0710 31       		.uleb128 0x31
 1073 0711 9B040000 		.4byte	.LASF120
 1074 0715 00000000 		.4byte	.LFB283
 1075 0719 14000000 		.4byte	.LFE283-.LFB283
 1076 071d 01       		.uleb128 0x1
 1077 071e 9C       		.byte	0x9c
 1078 071f 62070000 		.4byte	0x762
 1079 0723 26       		.uleb128 0x26
 1080 0724 FB040000 		.4byte	0x4fb
 1081 0728 00000000 		.4byte	.LBB46
 1082 072c 14000000 		.4byte	.LBE46-.LBB46
ARM GAS  /var/folders/jh/mykvt1xn5_n17wfcspzg3zpm0000gp/T//ccIA7qED.s 			page 20


 1083 0730 01       		.byte	0x1
 1084 0731 58       		.byte	0x58
 1085 0732 25       		.uleb128 0x25
 1086 0733 10050000 		.4byte	0x510
 1087 0737 B2020000 		.4byte	.LLST18
 1088 073b 25       		.uleb128 0x25
 1089 073c 05050000 		.4byte	0x505
 1090 0740 C8020000 		.4byte	.LLST19
 1091 0744 26       		.uleb128 0x26
 1092 0745 37040000 		.4byte	0x437
 1093 0749 00000000 		.4byte	.LBB47
 1094 074d 14000000 		.4byte	.LBE47-.LBB47
 1095 0751 01       		.byte	0x1
 1096 0752 0F       		.byte	0xf
 1097 0753 32       		.uleb128 0x32
 1098 0754 45040000 		.4byte	0x445
 1099 0758 06       		.uleb128 0x6
 1100 0759 03       		.byte	0x3
 1101 075a 04000000 		.4byte	_ZL3lfo
 1102 075e 9F       		.byte	0x9f
 1103 075f 00       		.byte	0
 1104 0760 00       		.byte	0
 1105 0761 00       		.byte	0
 1106 0762 33       		.uleb128 0x33
 1107 0763 AC030000 		.4byte	.LASF94
 1108 0767 08       		.byte	0x8
 1109 0768 46       		.byte	0x46
 1110 0769 6D070000 		.4byte	0x76d
 1111 076d 0D       		.uleb128 0xd
 1112 076e A9000000 		.4byte	0xa9
 1113 0772 33       		.uleb128 0x33
 1114 0773 58060000 		.4byte	.LASF95
 1115 0777 08       		.byte	0x8
 1116 0778 4B       		.byte	0x4b
 1117 0779 6D070000 		.4byte	0x76d
 1118 077d 34       		.uleb128 0x34
 1119 077e 70010000 		.4byte	0x170
 1120 0782 8D070000 		.4byte	0x78d
 1121 0786 35       		.uleb128 0x35
 1122 0787 C0000000 		.4byte	0xc0
 1123 078b 80       		.byte	0x80
 1124 078c 00       		.byte	0
 1125 078d 33       		.uleb128 0x33
 1126 078e 0B070000 		.4byte	.LASF96
 1127 0792 09       		.byte	0x9
 1128 0793 94       		.byte	0x94
 1129 0794 98070000 		.4byte	0x798
 1130 0798 0D       		.uleb128 0xd
 1131 0799 7D070000 		.4byte	0x77d
 1132 079d 34       		.uleb128 0x34
 1133 079e 70010000 		.4byte	0x170
 1134 07a2 AE070000 		.4byte	0x7ae
 1135 07a6 36       		.uleb128 0x36
 1136 07a7 C0000000 		.4byte	0xc0
 1137 07ab 0001     		.2byte	0x100
 1138 07ad 00       		.byte	0
 1139 07ae 37       		.uleb128 0x37
ARM GAS  /var/folders/jh/mykvt1xn5_n17wfcspzg3zpm0000gp/T//ccIA7qED.s 			page 21


 1140 07af 52040000 		.4byte	.LASF97
 1141 07b3 09       		.byte	0x9
 1142 07b4 4D02     		.2byte	0x24d
 1143 07b6 BA070000 		.4byte	0x7ba
 1144 07ba 0D       		.uleb128 0xd
 1145 07bb 9D070000 		.4byte	0x79d
 1146 07bf 37       		.uleb128 0x37
 1147 07c0 D8010000 		.4byte	.LASF98
 1148 07c4 09       		.byte	0x9
 1149 07c5 6402     		.2byte	0x264
 1150 07c7 CB070000 		.4byte	0x7cb
 1151 07cb 0D       		.uleb128 0xd
 1152 07cc 9D070000 		.4byte	0x79d
 1153 07d0 37       		.uleb128 0x37
 1154 07d1 03060000 		.4byte	.LASF99
 1155 07d5 09       		.byte	0x9
 1156 07d6 7C02     		.2byte	0x27c
 1157 07d8 DC070000 		.4byte	0x7dc
 1158 07dc 0D       		.uleb128 0xd
 1159 07dd 9D070000 		.4byte	0x79d
 1160 07e1 37       		.uleb128 0x37
 1161 07e2 91030000 		.4byte	.LASF100
 1162 07e6 08       		.byte	0x8
 1163 07e7 0F01     		.2byte	0x10f
 1164 07e9 ED070000 		.4byte	0x7ed
 1165 07ed 0D       		.uleb128 0xd
 1166 07ee 9D070000 		.4byte	0x79d
 1167 07f2 37       		.uleb128 0x37
 1168 07f3 13060000 		.4byte	.LASF101
 1169 07f7 09       		.byte	0x9
 1170 07f8 AB02     		.2byte	0x2ab
 1171 07fa FE070000 		.4byte	0x7fe
 1172 07fe 0D       		.uleb128 0xd
 1173 07ff 7D070000 		.4byte	0x77d
 1174 0803 37       		.uleb128 0x37
 1175 0804 FE030000 		.4byte	.LASF102
 1176 0808 09       		.byte	0x9
 1177 0809 C002     		.2byte	0x2c0
 1178 080b 0F080000 		.4byte	0x80f
 1179 080f 0D       		.uleb128 0xd
 1180 0810 7D070000 		.4byte	0x77d
 1181 0814 37       		.uleb128 0x37
 1182 0815 9F010000 		.4byte	.LASF103
 1183 0819 09       		.byte	0x9
 1184 081a DD02     		.2byte	0x2dd
 1185 081c 20080000 		.4byte	0x820
 1186 0820 0D       		.uleb128 0xd
 1187 0821 7D070000 		.4byte	0x77d
 1188 0825 33       		.uleb128 0x33
 1189 0826 8E080000 		.4byte	.LASF104
 1190 082a 09       		.byte	0x9
 1191 082b 45       		.byte	0x45
 1192 082c 6D070000 		.4byte	0x76d
 1193 0830 33       		.uleb128 0x33
 1194 0831 C6060000 		.4byte	.LASF105
 1195 0835 09       		.byte	0x9
 1196 0836 4A       		.byte	0x4a
ARM GAS  /var/folders/jh/mykvt1xn5_n17wfcspzg3zpm0000gp/T//ccIA7qED.s 			page 22


 1197 0837 6D070000 		.4byte	0x76d
 1198 083b 34       		.uleb128 0x34
 1199 083c 70010000 		.4byte	0x170
 1200 0840 4B080000 		.4byte	0x84b
 1201 0844 35       		.uleb128 0x35
 1202 0845 C0000000 		.4byte	0xc0
 1203 0849 97       		.byte	0x97
 1204 084a 00       		.byte	0
 1205 084b 33       		.uleb128 0x33
 1206 084c 25020000 		.4byte	.LASF106
 1207 0850 09       		.byte	0x9
 1208 0851 67       		.byte	0x67
 1209 0852 56080000 		.4byte	0x856
 1210 0856 0D       		.uleb128 0xd
 1211 0857 3B080000 		.4byte	0x83b
 1212 085b 34       		.uleb128 0x34
 1213 085c 70010000 		.4byte	0x170
 1214 0860 6C080000 		.4byte	0x86c
 1215 0864 36       		.uleb128 0x36
 1216 0865 C0000000 		.4byte	0xc0
 1217 0869 8603     		.2byte	0x386
 1218 086b 00       		.byte	0
 1219 086c 33       		.uleb128 0x33
 1220 086d 4D050000 		.4byte	.LASF107
 1221 0871 09       		.byte	0x9
 1222 0872 C6       		.byte	0xc6
 1223 0873 77080000 		.4byte	0x877
 1224 0877 0D       		.uleb128 0xd
 1225 0878 5B080000 		.4byte	0x85b
 1226 087c 37       		.uleb128 0x37
 1227 087d 22060000 		.4byte	.LASF108
 1228 0881 09       		.byte	0x9
 1229 0882 3801     		.2byte	0x138
 1230 0884 88080000 		.4byte	0x888
 1231 0888 0D       		.uleb128 0xd
 1232 0889 5B080000 		.4byte	0x85b
 1233 088d 37       		.uleb128 0x37
 1234 088e 34000000 		.4byte	.LASF109
 1235 0892 09       		.byte	0x9
 1236 0893 AB01     		.2byte	0x1ab
 1237 0895 99080000 		.4byte	0x899
 1238 0899 0D       		.uleb128 0xd
 1239 089a 5B080000 		.4byte	0x85b
 1240 089e 38       		.uleb128 0x38
 1241 089f 6C666F00 		.ascii	"lfo\000"
 1242 08a3 01       		.byte	0x1
 1243 08a4 0F       		.byte	0xf
 1244 08a5 86010000 		.4byte	0x186
 1245 08a9 05       		.uleb128 0x5
 1246 08aa 03       		.byte	0x3
 1247 08ab 04000000 		.4byte	_ZL3lfo
 1248 08af 39       		.uleb128 0x39
 1249 08b0 5A080000 		.4byte	.LASF110
 1250 08b4 01       		.byte	0x1
 1251 08b5 11       		.byte	0x11
 1252 08b6 25000000 		.4byte	0x25
 1253 08ba 05       		.uleb128 0x5
ARM GAS  /var/folders/jh/mykvt1xn5_n17wfcspzg3zpm0000gp/T//ccIA7qED.s 			page 23


 1254 08bb 03       		.byte	0x3
 1255 08bc 00000000 		.4byte	tremolo_depth
 1256 08c0 00       		.byte	0
 1257              		.section	.debug_abbrev,"",%progbits
 1258              	.Ldebug_abbrev0:
 1259 0000 01       		.uleb128 0x1
 1260 0001 11       		.uleb128 0x11
 1261 0002 01       		.byte	0x1
 1262 0003 25       		.uleb128 0x25
 1263 0004 0E       		.uleb128 0xe
 1264 0005 13       		.uleb128 0x13
 1265 0006 0B       		.uleb128 0xb
 1266 0007 03       		.uleb128 0x3
 1267 0008 0E       		.uleb128 0xe
 1268 0009 1B       		.uleb128 0x1b
 1269 000a 0E       		.uleb128 0xe
 1270 000b 55       		.uleb128 0x55
 1271 000c 17       		.uleb128 0x17
 1272 000d 11       		.uleb128 0x11
 1273 000e 01       		.uleb128 0x1
 1274 000f 10       		.uleb128 0x10
 1275 0010 17       		.uleb128 0x17
 1276 0011 00       		.byte	0
 1277 0012 00       		.byte	0
 1278 0013 02       		.uleb128 0x2
 1279 0014 24       		.uleb128 0x24
 1280 0015 00       		.byte	0
 1281 0016 0B       		.uleb128 0xb
 1282 0017 0B       		.uleb128 0xb
 1283 0018 3E       		.uleb128 0x3e
 1284 0019 0B       		.uleb128 0xb
 1285 001a 03       		.uleb128 0x3
 1286 001b 0E       		.uleb128 0xe
 1287 001c 00       		.byte	0
 1288 001d 00       		.byte	0
 1289 001e 03       		.uleb128 0x3
 1290 001f 24       		.uleb128 0x24
 1291 0020 00       		.byte	0
 1292 0021 0B       		.uleb128 0xb
 1293 0022 0B       		.uleb128 0xb
 1294 0023 3E       		.uleb128 0x3e
 1295 0024 0B       		.uleb128 0xb
 1296 0025 03       		.uleb128 0x3
 1297 0026 08       		.uleb128 0x8
 1298 0027 00       		.byte	0
 1299 0028 00       		.byte	0
 1300 0029 04       		.uleb128 0x4
 1301 002a 16       		.uleb128 0x16
 1302 002b 00       		.byte	0
 1303 002c 03       		.uleb128 0x3
 1304 002d 0E       		.uleb128 0xe
 1305 002e 3A       		.uleb128 0x3a
 1306 002f 0B       		.uleb128 0xb
 1307 0030 3B       		.uleb128 0x3b
 1308 0031 0B       		.uleb128 0xb
 1309 0032 49       		.uleb128 0x49
 1310 0033 13       		.uleb128 0x13
ARM GAS  /var/folders/jh/mykvt1xn5_n17wfcspzg3zpm0000gp/T//ccIA7qED.s 			page 24


 1311 0034 00       		.byte	0
 1312 0035 00       		.byte	0
 1313 0036 05       		.uleb128 0x5
 1314 0037 3B       		.uleb128 0x3b
 1315 0038 00       		.byte	0
 1316 0039 03       		.uleb128 0x3
 1317 003a 0E       		.uleb128 0xe
 1318 003b 00       		.byte	0
 1319 003c 00       		.byte	0
 1320 003d 06       		.uleb128 0x6
 1321 003e 17       		.uleb128 0x17
 1322 003f 01       		.byte	0x1
 1323 0040 0B       		.uleb128 0xb
 1324 0041 0B       		.uleb128 0xb
 1325 0042 3A       		.uleb128 0x3a
 1326 0043 0B       		.uleb128 0xb
 1327 0044 3B       		.uleb128 0x3b
 1328 0045 0B       		.uleb128 0xb
 1329 0046 6E       		.uleb128 0x6e
 1330 0047 0E       		.uleb128 0xe
 1331 0048 01       		.uleb128 0x1
 1332 0049 13       		.uleb128 0x13
 1333 004a 00       		.byte	0
 1334 004b 00       		.byte	0
 1335 004c 07       		.uleb128 0x7
 1336 004d 0D       		.uleb128 0xd
 1337 004e 00       		.byte	0
 1338 004f 03       		.uleb128 0x3
 1339 0050 08       		.uleb128 0x8
 1340 0051 3A       		.uleb128 0x3a
 1341 0052 0B       		.uleb128 0xb
 1342 0053 3B       		.uleb128 0x3b
 1343 0054 0B       		.uleb128 0xb
 1344 0055 49       		.uleb128 0x49
 1345 0056 13       		.uleb128 0x13
 1346 0057 00       		.byte	0
 1347 0058 00       		.byte	0
 1348 0059 08       		.uleb128 0x8
 1349 005a 16       		.uleb128 0x16
 1350 005b 00       		.byte	0
 1351 005c 03       		.uleb128 0x3
 1352 005d 0E       		.uleb128 0xe
 1353 005e 3A       		.uleb128 0x3a
 1354 005f 0B       		.uleb128 0xb
 1355 0060 3B       		.uleb128 0x3b
 1356 0061 05       		.uleb128 0x5
 1357 0062 49       		.uleb128 0x49
 1358 0063 13       		.uleb128 0x13
 1359 0064 00       		.byte	0
 1360 0065 00       		.byte	0
 1361 0066 09       		.uleb128 0x9
 1362 0067 04       		.uleb128 0x4
 1363 0068 01       		.byte	0x1
 1364 0069 0B       		.uleb128 0xb
 1365 006a 0B       		.uleb128 0xb
 1366 006b 49       		.uleb128 0x49
 1367 006c 13       		.uleb128 0x13
ARM GAS  /var/folders/jh/mykvt1xn5_n17wfcspzg3zpm0000gp/T//ccIA7qED.s 			page 25


 1368 006d 3A       		.uleb128 0x3a
 1369 006e 0B       		.uleb128 0xb
 1370 006f 3B       		.uleb128 0x3b
 1371 0070 0B       		.uleb128 0xb
 1372 0071 01       		.uleb128 0x1
 1373 0072 13       		.uleb128 0x13
 1374 0073 00       		.byte	0
 1375 0074 00       		.byte	0
 1376 0075 0A       		.uleb128 0xa
 1377 0076 28       		.uleb128 0x28
 1378 0077 00       		.byte	0
 1379 0078 03       		.uleb128 0x3
 1380 0079 0E       		.uleb128 0xe
 1381 007a 1C       		.uleb128 0x1c
 1382 007b 0B       		.uleb128 0xb
 1383 007c 00       		.byte	0
 1384 007d 00       		.byte	0
 1385 007e 0B       		.uleb128 0xb
 1386 007f 04       		.uleb128 0x4
 1387 0080 01       		.byte	0x1
 1388 0081 0B       		.uleb128 0xb
 1389 0082 0B       		.uleb128 0xb
 1390 0083 49       		.uleb128 0x49
 1391 0084 13       		.uleb128 0x13
 1392 0085 3A       		.uleb128 0x3a
 1393 0086 0B       		.uleb128 0xb
 1394 0087 3B       		.uleb128 0x3b
 1395 0088 0B       		.uleb128 0xb
 1396 0089 6E       		.uleb128 0x6e
 1397 008a 0E       		.uleb128 0xe
 1398 008b 01       		.uleb128 0x1
 1399 008c 13       		.uleb128 0x13
 1400 008d 00       		.byte	0
 1401 008e 00       		.byte	0
 1402 008f 0C       		.uleb128 0xc
 1403 0090 0F       		.uleb128 0xf
 1404 0091 00       		.byte	0
 1405 0092 0B       		.uleb128 0xb
 1406 0093 0B       		.uleb128 0xb
 1407 0094 49       		.uleb128 0x49
 1408 0095 13       		.uleb128 0x13
 1409 0096 00       		.byte	0
 1410 0097 00       		.byte	0
 1411 0098 0D       		.uleb128 0xd
 1412 0099 26       		.uleb128 0x26
 1413 009a 00       		.byte	0
 1414 009b 49       		.uleb128 0x49
 1415 009c 13       		.uleb128 0x13
 1416 009d 00       		.byte	0
 1417 009e 00       		.byte	0
 1418 009f 0E       		.uleb128 0xe
 1419 00a0 39       		.uleb128 0x39
 1420 00a1 01       		.byte	0x1
 1421 00a2 03       		.uleb128 0x3
 1422 00a3 08       		.uleb128 0x8
 1423 00a4 3A       		.uleb128 0x3a
 1424 00a5 0B       		.uleb128 0xb
ARM GAS  /var/folders/jh/mykvt1xn5_n17wfcspzg3zpm0000gp/T//ccIA7qED.s 			page 26


 1425 00a6 3B       		.uleb128 0x3b
 1426 00a7 0B       		.uleb128 0xb
 1427 00a8 01       		.uleb128 0x1
 1428 00a9 13       		.uleb128 0x13
 1429 00aa 00       		.byte	0
 1430 00ab 00       		.byte	0
 1431 00ac 0F       		.uleb128 0xf
 1432 00ad 13       		.uleb128 0x13
 1433 00ae 01       		.byte	0x1
 1434 00af 03       		.uleb128 0x3
 1435 00b0 0E       		.uleb128 0xe
 1436 00b1 0B       		.uleb128 0xb
 1437 00b2 0B       		.uleb128 0xb
 1438 00b3 3A       		.uleb128 0x3a
 1439 00b4 0B       		.uleb128 0xb
 1440 00b5 3B       		.uleb128 0x3b
 1441 00b6 0B       		.uleb128 0xb
 1442 00b7 00       		.byte	0
 1443 00b8 00       		.byte	0
 1444 00b9 10       		.uleb128 0x10
 1445 00ba 0D       		.uleb128 0xd
 1446 00bb 00       		.byte	0
 1447 00bc 03       		.uleb128 0x3
 1448 00bd 0E       		.uleb128 0xe
 1449 00be 3A       		.uleb128 0x3a
 1450 00bf 0B       		.uleb128 0xb
 1451 00c0 3B       		.uleb128 0x3b
 1452 00c1 05       		.uleb128 0x5
 1453 00c2 49       		.uleb128 0x49
 1454 00c3 13       		.uleb128 0x13
 1455 00c4 38       		.uleb128 0x38
 1456 00c5 0B       		.uleb128 0xb
 1457 00c6 00       		.byte	0
 1458 00c7 00       		.byte	0
 1459 00c8 11       		.uleb128 0x11
 1460 00c9 0D       		.uleb128 0xd
 1461 00ca 00       		.byte	0
 1462 00cb 03       		.uleb128 0x3
 1463 00cc 08       		.uleb128 0x8
 1464 00cd 3A       		.uleb128 0x3a
 1465 00ce 0B       		.uleb128 0xb
 1466 00cf 3B       		.uleb128 0x3b
 1467 00d0 05       		.uleb128 0x5
 1468 00d1 49       		.uleb128 0x49
 1469 00d2 13       		.uleb128 0x13
 1470 00d3 38       		.uleb128 0x38
 1471 00d4 0B       		.uleb128 0xb
 1472 00d5 00       		.byte	0
 1473 00d6 00       		.byte	0
 1474 00d7 12       		.uleb128 0x12
 1475 00d8 2E       		.uleb128 0x2e
 1476 00d9 01       		.byte	0x1
 1477 00da 3F       		.uleb128 0x3f
 1478 00db 19       		.uleb128 0x19
 1479 00dc 03       		.uleb128 0x3
 1480 00dd 0E       		.uleb128 0xe
 1481 00de 3A       		.uleb128 0x3a
ARM GAS  /var/folders/jh/mykvt1xn5_n17wfcspzg3zpm0000gp/T//ccIA7qED.s 			page 27


 1482 00df 0B       		.uleb128 0xb
 1483 00e0 3B       		.uleb128 0x3b
 1484 00e1 0B       		.uleb128 0xb
 1485 00e2 6E       		.uleb128 0x6e
 1486 00e3 0E       		.uleb128 0xe
 1487 00e4 49       		.uleb128 0x49
 1488 00e5 13       		.uleb128 0x13
 1489 00e6 3C       		.uleb128 0x3c
 1490 00e7 19       		.uleb128 0x19
 1491 00e8 64       		.uleb128 0x64
 1492 00e9 13       		.uleb128 0x13
 1493 00ea 01       		.uleb128 0x1
 1494 00eb 13       		.uleb128 0x13
 1495 00ec 00       		.byte	0
 1496 00ed 00       		.byte	0
 1497 00ee 13       		.uleb128 0x13
 1498 00ef 05       		.uleb128 0x5
 1499 00f0 00       		.byte	0
 1500 00f1 49       		.uleb128 0x49
 1501 00f2 13       		.uleb128 0x13
 1502 00f3 34       		.uleb128 0x34
 1503 00f4 19       		.uleb128 0x19
 1504 00f5 00       		.byte	0
 1505 00f6 00       		.byte	0
 1506 00f7 14       		.uleb128 0x14
 1507 00f8 2E       		.uleb128 0x2e
 1508 00f9 01       		.byte	0x1
 1509 00fa 3F       		.uleb128 0x3f
 1510 00fb 19       		.uleb128 0x19
 1511 00fc 03       		.uleb128 0x3
 1512 00fd 0E       		.uleb128 0xe
 1513 00fe 3A       		.uleb128 0x3a
 1514 00ff 0B       		.uleb128 0xb
 1515 0100 3B       		.uleb128 0x3b
 1516 0101 0B       		.uleb128 0xb
 1517 0102 6E       		.uleb128 0x6e
 1518 0103 0E       		.uleb128 0xe
 1519 0104 3C       		.uleb128 0x3c
 1520 0105 19       		.uleb128 0x19
 1521 0106 64       		.uleb128 0x64
 1522 0107 13       		.uleb128 0x13
 1523 0108 01       		.uleb128 0x1
 1524 0109 13       		.uleb128 0x13
 1525 010a 00       		.byte	0
 1526 010b 00       		.byte	0
 1527 010c 15       		.uleb128 0x15
 1528 010d 05       		.uleb128 0x5
 1529 010e 00       		.byte	0
 1530 010f 49       		.uleb128 0x49
 1531 0110 13       		.uleb128 0x13
 1532 0111 00       		.byte	0
 1533 0112 00       		.byte	0
 1534 0113 16       		.uleb128 0x16
 1535 0114 2E       		.uleb128 0x2e
 1536 0115 01       		.byte	0x1
 1537 0116 3F       		.uleb128 0x3f
 1538 0117 19       		.uleb128 0x19
ARM GAS  /var/folders/jh/mykvt1xn5_n17wfcspzg3zpm0000gp/T//ccIA7qED.s 			page 28


 1539 0118 03       		.uleb128 0x3
 1540 0119 0E       		.uleb128 0xe
 1541 011a 3A       		.uleb128 0x3a
 1542 011b 0B       		.uleb128 0xb
 1543 011c 3B       		.uleb128 0x3b
 1544 011d 05       		.uleb128 0x5
 1545 011e 6E       		.uleb128 0x6e
 1546 011f 0E       		.uleb128 0xe
 1547 0120 49       		.uleb128 0x49
 1548 0121 13       		.uleb128 0x13
 1549 0122 3C       		.uleb128 0x3c
 1550 0123 19       		.uleb128 0x19
 1551 0124 64       		.uleb128 0x64
 1552 0125 13       		.uleb128 0x13
 1553 0126 01       		.uleb128 0x1
 1554 0127 13       		.uleb128 0x13
 1555 0128 00       		.byte	0
 1556 0129 00       		.byte	0
 1557 012a 17       		.uleb128 0x17
 1558 012b 2E       		.uleb128 0x2e
 1559 012c 01       		.byte	0x1
 1560 012d 3F       		.uleb128 0x3f
 1561 012e 19       		.uleb128 0x19
 1562 012f 03       		.uleb128 0x3
 1563 0130 0E       		.uleb128 0xe
 1564 0131 3A       		.uleb128 0x3a
 1565 0132 0B       		.uleb128 0xb
 1566 0133 3B       		.uleb128 0x3b
 1567 0134 05       		.uleb128 0x5
 1568 0135 6E       		.uleb128 0x6e
 1569 0136 0E       		.uleb128 0xe
 1570 0137 49       		.uleb128 0x49
 1571 0138 13       		.uleb128 0x13
 1572 0139 3C       		.uleb128 0x3c
 1573 013a 19       		.uleb128 0x19
 1574 013b 64       		.uleb128 0x64
 1575 013c 13       		.uleb128 0x13
 1576 013d 00       		.byte	0
 1577 013e 00       		.byte	0
 1578 013f 18       		.uleb128 0x18
 1579 0140 2E       		.uleb128 0x2e
 1580 0141 01       		.byte	0x1
 1581 0142 47       		.uleb128 0x47
 1582 0143 13       		.uleb128 0x13
 1583 0144 20       		.uleb128 0x20
 1584 0145 0B       		.uleb128 0xb
 1585 0146 64       		.uleb128 0x64
 1586 0147 13       		.uleb128 0x13
 1587 0148 01       		.uleb128 0x1
 1588 0149 13       		.uleb128 0x13
 1589 014a 00       		.byte	0
 1590 014b 00       		.byte	0
 1591 014c 19       		.uleb128 0x19
 1592 014d 05       		.uleb128 0x5
 1593 014e 00       		.byte	0
 1594 014f 03       		.uleb128 0x3
 1595 0150 0E       		.uleb128 0xe
ARM GAS  /var/folders/jh/mykvt1xn5_n17wfcspzg3zpm0000gp/T//ccIA7qED.s 			page 29


 1596 0151 49       		.uleb128 0x49
 1597 0152 13       		.uleb128 0x13
 1598 0153 34       		.uleb128 0x34
 1599 0154 19       		.uleb128 0x19
 1600 0155 00       		.byte	0
 1601 0156 00       		.byte	0
 1602 0157 1A       		.uleb128 0x1a
 1603 0158 2E       		.uleb128 0x2e
 1604 0159 01       		.byte	0x1
 1605 015a 03       		.uleb128 0x3
 1606 015b 0E       		.uleb128 0xe
 1607 015c 3A       		.uleb128 0x3a
 1608 015d 0B       		.uleb128 0xb
 1609 015e 3B       		.uleb128 0x3b
 1610 015f 05       		.uleb128 0x5
 1611 0160 49       		.uleb128 0x49
 1612 0161 13       		.uleb128 0x13
 1613 0162 20       		.uleb128 0x20
 1614 0163 0B       		.uleb128 0xb
 1615 0164 01       		.uleb128 0x1
 1616 0165 13       		.uleb128 0x13
 1617 0166 00       		.byte	0
 1618 0167 00       		.byte	0
 1619 0168 1B       		.uleb128 0x1b
 1620 0169 05       		.uleb128 0x5
 1621 016a 00       		.byte	0
 1622 016b 03       		.uleb128 0x3
 1623 016c 08       		.uleb128 0x8
 1624 016d 3A       		.uleb128 0x3a
 1625 016e 0B       		.uleb128 0xb
 1626 016f 3B       		.uleb128 0x3b
 1627 0170 05       		.uleb128 0x5
 1628 0171 49       		.uleb128 0x49
 1629 0172 13       		.uleb128 0x13
 1630 0173 00       		.byte	0
 1631 0174 00       		.byte	0
 1632 0175 1C       		.uleb128 0x1c
 1633 0176 34       		.uleb128 0x34
 1634 0177 00       		.byte	0
 1635 0178 03       		.uleb128 0x3
 1636 0179 08       		.uleb128 0x8
 1637 017a 3A       		.uleb128 0x3a
 1638 017b 0B       		.uleb128 0xb
 1639 017c 3B       		.uleb128 0x3b
 1640 017d 05       		.uleb128 0x5
 1641 017e 49       		.uleb128 0x49
 1642 017f 13       		.uleb128 0x13
 1643 0180 00       		.byte	0
 1644 0181 00       		.byte	0
 1645 0182 1D       		.uleb128 0x1d
 1646 0183 05       		.uleb128 0x5
 1647 0184 00       		.byte	0
 1648 0185 03       		.uleb128 0x3
 1649 0186 08       		.uleb128 0x8
 1650 0187 3A       		.uleb128 0x3a
 1651 0188 0B       		.uleb128 0xb
 1652 0189 3B       		.uleb128 0x3b
ARM GAS  /var/folders/jh/mykvt1xn5_n17wfcspzg3zpm0000gp/T//ccIA7qED.s 			page 30


 1653 018a 0B       		.uleb128 0xb
 1654 018b 49       		.uleb128 0x49
 1655 018c 13       		.uleb128 0x13
 1656 018d 00       		.byte	0
 1657 018e 00       		.byte	0
 1658 018f 1E       		.uleb128 0x1e
 1659 0190 05       		.uleb128 0x5
 1660 0191 00       		.byte	0
 1661 0192 03       		.uleb128 0x3
 1662 0193 0E       		.uleb128 0xe
 1663 0194 3A       		.uleb128 0x3a
 1664 0195 0B       		.uleb128 0xb
 1665 0196 3B       		.uleb128 0x3b
 1666 0197 0B       		.uleb128 0xb
 1667 0198 49       		.uleb128 0x49
 1668 0199 13       		.uleb128 0x13
 1669 019a 00       		.byte	0
 1670 019b 00       		.byte	0
 1671 019c 1F       		.uleb128 0x1f
 1672 019d 34       		.uleb128 0x34
 1673 019e 00       		.byte	0
 1674 019f 03       		.uleb128 0x3
 1675 01a0 0E       		.uleb128 0xe
 1676 01a1 3A       		.uleb128 0x3a
 1677 01a2 0B       		.uleb128 0xb
 1678 01a3 3B       		.uleb128 0x3b
 1679 01a4 0B       		.uleb128 0xb
 1680 01a5 49       		.uleb128 0x49
 1681 01a6 13       		.uleb128 0x13
 1682 01a7 00       		.byte	0
 1683 01a8 00       		.byte	0
 1684 01a9 20       		.uleb128 0x20
 1685 01aa 2E       		.uleb128 0x2e
 1686 01ab 01       		.byte	0x1
 1687 01ac 03       		.uleb128 0x3
 1688 01ad 0E       		.uleb128 0xe
 1689 01ae 34       		.uleb128 0x34
 1690 01af 19       		.uleb128 0x19
 1691 01b0 20       		.uleb128 0x20
 1692 01b1 0B       		.uleb128 0xb
 1693 01b2 01       		.uleb128 0x1
 1694 01b3 13       		.uleb128 0x13
 1695 01b4 00       		.byte	0
 1696 01b5 00       		.byte	0
 1697 01b6 21       		.uleb128 0x21
 1698 01b7 2E       		.uleb128 0x2e
 1699 01b8 01       		.byte	0x1
 1700 01b9 3F       		.uleb128 0x3f
 1701 01ba 19       		.uleb128 0x19
 1702 01bb 03       		.uleb128 0x3
 1703 01bc 0E       		.uleb128 0xe
 1704 01bd 3A       		.uleb128 0x3a
 1705 01be 0B       		.uleb128 0xb
 1706 01bf 3B       		.uleb128 0x3b
 1707 01c0 0B       		.uleb128 0xb
 1708 01c1 11       		.uleb128 0x11
 1709 01c2 01       		.uleb128 0x1
ARM GAS  /var/folders/jh/mykvt1xn5_n17wfcspzg3zpm0000gp/T//ccIA7qED.s 			page 31


 1710 01c3 12       		.uleb128 0x12
 1711 01c4 06       		.uleb128 0x6
 1712 01c5 40       		.uleb128 0x40
 1713 01c6 18       		.uleb128 0x18
 1714 01c7 9742     		.uleb128 0x2117
 1715 01c9 19       		.uleb128 0x19
 1716 01ca 01       		.uleb128 0x1
 1717 01cb 13       		.uleb128 0x13
 1718 01cc 00       		.byte	0
 1719 01cd 00       		.byte	0
 1720 01ce 22       		.uleb128 0x22
 1721 01cf 05       		.uleb128 0x5
 1722 01d0 00       		.byte	0
 1723 01d1 03       		.uleb128 0x3
 1724 01d2 0E       		.uleb128 0xe
 1725 01d3 3A       		.uleb128 0x3a
 1726 01d4 0B       		.uleb128 0xb
 1727 01d5 3B       		.uleb128 0x3b
 1728 01d6 0B       		.uleb128 0xb
 1729 01d7 49       		.uleb128 0x49
 1730 01d8 13       		.uleb128 0x13
 1731 01d9 02       		.uleb128 0x2
 1732 01da 18       		.uleb128 0x18
 1733 01db 00       		.byte	0
 1734 01dc 00       		.byte	0
 1735 01dd 23       		.uleb128 0x23
 1736 01de 05       		.uleb128 0x5
 1737 01df 00       		.byte	0
 1738 01e0 03       		.uleb128 0x3
 1739 01e1 08       		.uleb128 0x8
 1740 01e2 3A       		.uleb128 0x3a
 1741 01e3 0B       		.uleb128 0xb
 1742 01e4 3B       		.uleb128 0x3b
 1743 01e5 0B       		.uleb128 0xb
 1744 01e6 49       		.uleb128 0x49
 1745 01e7 13       		.uleb128 0x13
 1746 01e8 02       		.uleb128 0x2
 1747 01e9 18       		.uleb128 0x18
 1748 01ea 00       		.byte	0
 1749 01eb 00       		.byte	0
 1750 01ec 24       		.uleb128 0x24
 1751 01ed 1D       		.uleb128 0x1d
 1752 01ee 01       		.byte	0x1
 1753 01ef 31       		.uleb128 0x31
 1754 01f0 13       		.uleb128 0x13
 1755 01f1 11       		.uleb128 0x11
 1756 01f2 01       		.uleb128 0x1
 1757 01f3 12       		.uleb128 0x12
 1758 01f4 06       		.uleb128 0x6
 1759 01f5 58       		.uleb128 0x58
 1760 01f6 0B       		.uleb128 0xb
 1761 01f7 59       		.uleb128 0x59
 1762 01f8 0B       		.uleb128 0xb
 1763 01f9 01       		.uleb128 0x1
 1764 01fa 13       		.uleb128 0x13
 1765 01fb 00       		.byte	0
 1766 01fc 00       		.byte	0
ARM GAS  /var/folders/jh/mykvt1xn5_n17wfcspzg3zpm0000gp/T//ccIA7qED.s 			page 32


 1767 01fd 25       		.uleb128 0x25
 1768 01fe 05       		.uleb128 0x5
 1769 01ff 00       		.byte	0
 1770 0200 31       		.uleb128 0x31
 1771 0201 13       		.uleb128 0x13
 1772 0202 02       		.uleb128 0x2
 1773 0203 17       		.uleb128 0x17
 1774 0204 00       		.byte	0
 1775 0205 00       		.byte	0
 1776 0206 26       		.uleb128 0x26
 1777 0207 1D       		.uleb128 0x1d
 1778 0208 01       		.byte	0x1
 1779 0209 31       		.uleb128 0x31
 1780 020a 13       		.uleb128 0x13
 1781 020b 11       		.uleb128 0x11
 1782 020c 01       		.uleb128 0x1
 1783 020d 12       		.uleb128 0x12
 1784 020e 06       		.uleb128 0x6
 1785 020f 58       		.uleb128 0x58
 1786 0210 0B       		.uleb128 0xb
 1787 0211 59       		.uleb128 0x59
 1788 0212 0B       		.uleb128 0xb
 1789 0213 00       		.byte	0
 1790 0214 00       		.byte	0
 1791 0215 27       		.uleb128 0x27
 1792 0216 05       		.uleb128 0x5
 1793 0217 00       		.byte	0
 1794 0218 03       		.uleb128 0x3
 1795 0219 0E       		.uleb128 0xe
 1796 021a 3A       		.uleb128 0x3a
 1797 021b 0B       		.uleb128 0xb
 1798 021c 3B       		.uleb128 0x3b
 1799 021d 0B       		.uleb128 0xb
 1800 021e 49       		.uleb128 0x49
 1801 021f 13       		.uleb128 0x13
 1802 0220 02       		.uleb128 0x2
 1803 0221 17       		.uleb128 0x17
 1804 0222 00       		.byte	0
 1805 0223 00       		.byte	0
 1806 0224 28       		.uleb128 0x28
 1807 0225 34       		.uleb128 0x34
 1808 0226 00       		.byte	0
 1809 0227 03       		.uleb128 0x3
 1810 0228 08       		.uleb128 0x8
 1811 0229 3A       		.uleb128 0x3a
 1812 022a 0B       		.uleb128 0xb
 1813 022b 3B       		.uleb128 0x3b
 1814 022c 0B       		.uleb128 0xb
 1815 022d 49       		.uleb128 0x49
 1816 022e 13       		.uleb128 0x13
 1817 022f 02       		.uleb128 0x2
 1818 0230 17       		.uleb128 0x17
 1819 0231 00       		.byte	0
 1820 0232 00       		.byte	0
 1821 0233 29       		.uleb128 0x29
 1822 0234 34       		.uleb128 0x34
 1823 0235 00       		.byte	0
ARM GAS  /var/folders/jh/mykvt1xn5_n17wfcspzg3zpm0000gp/T//ccIA7qED.s 			page 33


 1824 0236 03       		.uleb128 0x3
 1825 0237 0E       		.uleb128 0xe
 1826 0238 3A       		.uleb128 0x3a
 1827 0239 0B       		.uleb128 0xb
 1828 023a 3B       		.uleb128 0x3b
 1829 023b 0B       		.uleb128 0xb
 1830 023c 49       		.uleb128 0x49
 1831 023d 13       		.uleb128 0x13
 1832 023e 02       		.uleb128 0x2
 1833 023f 18       		.uleb128 0x18
 1834 0240 00       		.byte	0
 1835 0241 00       		.byte	0
 1836 0242 2A       		.uleb128 0x2a
 1837 0243 34       		.uleb128 0x34
 1838 0244 00       		.byte	0
 1839 0245 03       		.uleb128 0x3
 1840 0246 0E       		.uleb128 0xe
 1841 0247 3A       		.uleb128 0x3a
 1842 0248 0B       		.uleb128 0xb
 1843 0249 3B       		.uleb128 0x3b
 1844 024a 0B       		.uleb128 0xb
 1845 024b 49       		.uleb128 0x49
 1846 024c 13       		.uleb128 0x13
 1847 024d 02       		.uleb128 0x2
 1848 024e 17       		.uleb128 0x17
 1849 024f 00       		.byte	0
 1850 0250 00       		.byte	0
 1851 0251 2B       		.uleb128 0x2b
 1852 0252 0B       		.uleb128 0xb
 1853 0253 01       		.byte	0x1
 1854 0254 55       		.uleb128 0x55
 1855 0255 17       		.uleb128 0x17
 1856 0256 00       		.byte	0
 1857 0257 00       		.byte	0
 1858 0258 2C       		.uleb128 0x2c
 1859 0259 1D       		.uleb128 0x1d
 1860 025a 01       		.byte	0x1
 1861 025b 31       		.uleb128 0x31
 1862 025c 13       		.uleb128 0x13
 1863 025d 52       		.uleb128 0x52
 1864 025e 01       		.uleb128 0x1
 1865 025f 55       		.uleb128 0x55
 1866 0260 17       		.uleb128 0x17
 1867 0261 58       		.uleb128 0x58
 1868 0262 0B       		.uleb128 0xb
 1869 0263 59       		.uleb128 0x59
 1870 0264 0B       		.uleb128 0xb
 1871 0265 00       		.byte	0
 1872 0266 00       		.byte	0
 1873 0267 2D       		.uleb128 0x2d
 1874 0268 34       		.uleb128 0x34
 1875 0269 00       		.byte	0
 1876 026a 31       		.uleb128 0x31
 1877 026b 13       		.uleb128 0x13
 1878 026c 02       		.uleb128 0x2
 1879 026d 18       		.uleb128 0x18
 1880 026e 00       		.byte	0
ARM GAS  /var/folders/jh/mykvt1xn5_n17wfcspzg3zpm0000gp/T//ccIA7qED.s 			page 34


 1881 026f 00       		.byte	0
 1882 0270 2E       		.uleb128 0x2e
 1883 0271 05       		.uleb128 0x5
 1884 0272 00       		.byte	0
 1885 0273 31       		.uleb128 0x31
 1886 0274 13       		.uleb128 0x13
 1887 0275 00       		.byte	0
 1888 0276 00       		.byte	0
 1889 0277 2F       		.uleb128 0x2f
 1890 0278 0B       		.uleb128 0xb
 1891 0279 01       		.byte	0x1
 1892 027a 11       		.uleb128 0x11
 1893 027b 01       		.uleb128 0x1
 1894 027c 12       		.uleb128 0x12
 1895 027d 06       		.uleb128 0x6
 1896 027e 00       		.byte	0
 1897 027f 00       		.byte	0
 1898 0280 30       		.uleb128 0x30
 1899 0281 34       		.uleb128 0x34
 1900 0282 00       		.byte	0
 1901 0283 31       		.uleb128 0x31
 1902 0284 13       		.uleb128 0x13
 1903 0285 00       		.byte	0
 1904 0286 00       		.byte	0
 1905 0287 31       		.uleb128 0x31
 1906 0288 2E       		.uleb128 0x2e
 1907 0289 01       		.byte	0x1
 1908 028a 03       		.uleb128 0x3
 1909 028b 0E       		.uleb128 0xe
 1910 028c 34       		.uleb128 0x34
 1911 028d 19       		.uleb128 0x19
 1912 028e 11       		.uleb128 0x11
 1913 028f 01       		.uleb128 0x1
 1914 0290 12       		.uleb128 0x12
 1915 0291 06       		.uleb128 0x6
 1916 0292 40       		.uleb128 0x40
 1917 0293 18       		.uleb128 0x18
 1918 0294 9742     		.uleb128 0x2117
 1919 0296 19       		.uleb128 0x19
 1920 0297 01       		.uleb128 0x1
 1921 0298 13       		.uleb128 0x13
 1922 0299 00       		.byte	0
 1923 029a 00       		.byte	0
 1924 029b 32       		.uleb128 0x32
 1925 029c 05       		.uleb128 0x5
 1926 029d 00       		.byte	0
 1927 029e 31       		.uleb128 0x31
 1928 029f 13       		.uleb128 0x13
 1929 02a0 02       		.uleb128 0x2
 1930 02a1 18       		.uleb128 0x18
 1931 02a2 00       		.byte	0
 1932 02a3 00       		.byte	0
 1933 02a4 33       		.uleb128 0x33
 1934 02a5 34       		.uleb128 0x34
 1935 02a6 00       		.byte	0
 1936 02a7 03       		.uleb128 0x3
 1937 02a8 0E       		.uleb128 0xe
ARM GAS  /var/folders/jh/mykvt1xn5_n17wfcspzg3zpm0000gp/T//ccIA7qED.s 			page 35


 1938 02a9 3A       		.uleb128 0x3a
 1939 02aa 0B       		.uleb128 0xb
 1940 02ab 3B       		.uleb128 0x3b
 1941 02ac 0B       		.uleb128 0xb
 1942 02ad 49       		.uleb128 0x49
 1943 02ae 13       		.uleb128 0x13
 1944 02af 3F       		.uleb128 0x3f
 1945 02b0 19       		.uleb128 0x19
 1946 02b1 3C       		.uleb128 0x3c
 1947 02b2 19       		.uleb128 0x19
 1948 02b3 00       		.byte	0
 1949 02b4 00       		.byte	0
 1950 02b5 34       		.uleb128 0x34
 1951 02b6 01       		.uleb128 0x1
 1952 02b7 01       		.byte	0x1
 1953 02b8 49       		.uleb128 0x49
 1954 02b9 13       		.uleb128 0x13
 1955 02ba 01       		.uleb128 0x1
 1956 02bb 13       		.uleb128 0x13
 1957 02bc 00       		.byte	0
 1958 02bd 00       		.byte	0
 1959 02be 35       		.uleb128 0x35
 1960 02bf 21       		.uleb128 0x21
 1961 02c0 00       		.byte	0
 1962 02c1 49       		.uleb128 0x49
 1963 02c2 13       		.uleb128 0x13
 1964 02c3 2F       		.uleb128 0x2f
 1965 02c4 0B       		.uleb128 0xb
 1966 02c5 00       		.byte	0
 1967 02c6 00       		.byte	0
 1968 02c7 36       		.uleb128 0x36
 1969 02c8 21       		.uleb128 0x21
 1970 02c9 00       		.byte	0
 1971 02ca 49       		.uleb128 0x49
 1972 02cb 13       		.uleb128 0x13
 1973 02cc 2F       		.uleb128 0x2f
 1974 02cd 05       		.uleb128 0x5
 1975 02ce 00       		.byte	0
 1976 02cf 00       		.byte	0
 1977 02d0 37       		.uleb128 0x37
 1978 02d1 34       		.uleb128 0x34
 1979 02d2 00       		.byte	0
 1980 02d3 03       		.uleb128 0x3
 1981 02d4 0E       		.uleb128 0xe
 1982 02d5 3A       		.uleb128 0x3a
 1983 02d6 0B       		.uleb128 0xb
 1984 02d7 3B       		.uleb128 0x3b
 1985 02d8 05       		.uleb128 0x5
 1986 02d9 49       		.uleb128 0x49
 1987 02da 13       		.uleb128 0x13
 1988 02db 3F       		.uleb128 0x3f
 1989 02dc 19       		.uleb128 0x19
 1990 02dd 3C       		.uleb128 0x3c
 1991 02de 19       		.uleb128 0x19
 1992 02df 00       		.byte	0
 1993 02e0 00       		.byte	0
 1994 02e1 38       		.uleb128 0x38
ARM GAS  /var/folders/jh/mykvt1xn5_n17wfcspzg3zpm0000gp/T//ccIA7qED.s 			page 36


 1995 02e2 34       		.uleb128 0x34
 1996 02e3 00       		.byte	0
 1997 02e4 03       		.uleb128 0x3
 1998 02e5 08       		.uleb128 0x8
 1999 02e6 3A       		.uleb128 0x3a
 2000 02e7 0B       		.uleb128 0xb
 2001 02e8 3B       		.uleb128 0x3b
 2002 02e9 0B       		.uleb128 0xb
 2003 02ea 49       		.uleb128 0x49
 2004 02eb 13       		.uleb128 0x13
 2005 02ec 02       		.uleb128 0x2
 2006 02ed 18       		.uleb128 0x18
 2007 02ee 00       		.byte	0
 2008 02ef 00       		.byte	0
 2009 02f0 39       		.uleb128 0x39
 2010 02f1 34       		.uleb128 0x34
 2011 02f2 00       		.byte	0
 2012 02f3 03       		.uleb128 0x3
 2013 02f4 0E       		.uleb128 0xe
 2014 02f5 3A       		.uleb128 0x3a
 2015 02f6 0B       		.uleb128 0xb
 2016 02f7 3B       		.uleb128 0x3b
 2017 02f8 0B       		.uleb128 0xb
 2018 02f9 49       		.uleb128 0x49
 2019 02fa 13       		.uleb128 0x13
 2020 02fb 3F       		.uleb128 0x3f
 2021 02fc 19       		.uleb128 0x19
 2022 02fd 02       		.uleb128 0x2
 2023 02fe 18       		.uleb128 0x18
 2024 02ff 00       		.byte	0
 2025 0300 00       		.byte	0
 2026 0301 00       		.byte	0
 2027              		.section	.debug_loc,"",%progbits
 2028              	.Ldebug_loc0:
 2029              	.LLST0:
 2030 0000 06000000 		.4byte	.LVL1
 2031 0004 0C000000 		.4byte	.LVL2
 2032 0008 0600     		.2byte	0x6
 2033 000a 03       		.byte	0x3
 2034 000b 04000000 		.4byte	_ZL3lfo
 2035 000f 9F       		.byte	0x9f
 2036 0010 00000000 		.4byte	0
 2037 0014 00000000 		.4byte	0
 2038              	.LLST1:
 2039 0018 0C000000 		.4byte	.LVL2
 2040 001c 10000000 		.4byte	.LVL3
 2041 0020 0600     		.2byte	0x6
 2042 0022 9E       		.byte	0x9e
 2043 0023 04       		.uleb128 0x4
 2044 0024 3EC3AE37 		.4byte	0x37aec33e
 2045 0028 00000000 		.4byte	0
 2046 002c 00000000 		.4byte	0
 2047              	.LLST2:
 2048 0030 0C000000 		.4byte	.LVL2
 2049 0034 10000000 		.4byte	.LVL3
 2050 0038 0600     		.2byte	0x6
 2051 003a 9E       		.byte	0x9e
ARM GAS  /var/folders/jh/mykvt1xn5_n17wfcspzg3zpm0000gp/T//ccIA7qED.s 			page 37


 2052 003b 04       		.uleb128 0x4
 2053 003c 00000000 		.4byte	0
 2054 0040 00000000 		.4byte	0
 2055 0044 00000000 		.4byte	0
 2056              	.LLST3:
 2057 0048 0C000000 		.4byte	.LVL2
 2058 004c 10000000 		.4byte	.LVL3
 2059 0050 0600     		.2byte	0x6
 2060 0052 03       		.byte	0x3
 2061 0053 04000000 		.4byte	_ZL3lfo
 2062 0057 9F       		.byte	0x9f
 2063 0058 00000000 		.4byte	0
 2064 005c 00000000 		.4byte	0
 2065              	.LLST4:
 2066 0060 18000000 		.4byte	.LVL4
 2067 0064 38000000 		.4byte	.LVL8
 2068 0068 0100     		.2byte	0x1
 2069 006a 50       		.byte	0x50
 2070 006b 38000000 		.4byte	.LVL8
 2071 006f A0000000 		.4byte	.LFE280
 2072 0073 0400     		.2byte	0x4
 2073 0075 F3       		.byte	0xf3
 2074 0076 01       		.uleb128 0x1
 2075 0077 50       		.byte	0x50
 2076 0078 9F       		.byte	0x9f
 2077 0079 00000000 		.4byte	0
 2078 007d 00000000 		.4byte	0
 2079              	.LLST5:
 2080 0081 18000000 		.4byte	.LVL4
 2081 0085 38000000 		.4byte	.LVL8
 2082 0089 0100     		.2byte	0x1
 2083 008b 51       		.byte	0x51
 2084 008c 38000000 		.4byte	.LVL8
 2085 0090 A0000000 		.4byte	.LFE280
 2086 0094 0400     		.2byte	0x4
 2087 0096 F3       		.byte	0xf3
 2088 0097 01       		.uleb128 0x1
 2089 0098 51       		.byte	0x51
 2090 0099 9F       		.byte	0x9f
 2091 009a 00000000 		.4byte	0
 2092 009e 00000000 		.4byte	0
 2093              	.LLST6:
 2094 00a2 18000000 		.4byte	.LVL4
 2095 00a6 1C000000 		.4byte	.LVL5
 2096 00aa 0100     		.2byte	0x1
 2097 00ac 52       		.byte	0x52
 2098 00ad 1C000000 		.4byte	.LVL5
 2099 00b1 A0000000 		.4byte	.LFE280
 2100 00b5 0400     		.2byte	0x4
 2101 00b7 F3       		.byte	0xf3
 2102 00b8 01       		.uleb128 0x1
 2103 00b9 52       		.byte	0x52
 2104 00ba 9F       		.byte	0x9f
 2105 00bb 00000000 		.4byte	0
 2106 00bf 00000000 		.4byte	0
 2107              	.LLST7:
 2108 00c3 18000000 		.4byte	.LVL4
ARM GAS  /var/folders/jh/mykvt1xn5_n17wfcspzg3zpm0000gp/T//ccIA7qED.s 			page 38


 2109 00c7 1E000000 		.4byte	.LVL6
 2110 00cb 0100     		.2byte	0x1
 2111 00cd 53       		.byte	0x53
 2112 00ce 1E000000 		.4byte	.LVL6
 2113 00d2 A0000000 		.4byte	.LFE280
 2114 00d6 0400     		.2byte	0x4
 2115 00d8 F3       		.byte	0xf3
 2116 00d9 01       		.uleb128 0x1
 2117 00da 53       		.byte	0x53
 2118 00db 9F       		.byte	0x9f
 2119 00dc 00000000 		.4byte	0
 2120 00e0 00000000 		.4byte	0
 2121              	.LLST8:
 2122 00e4 18000000 		.4byte	.LVL4
 2123 00e8 96000000 		.4byte	.LVL17
 2124 00ec 0200     		.2byte	0x2
 2125 00ee 91       		.byte	0x91
 2126 00ef 00       		.sleb128 0
 2127 00f0 96000000 		.4byte	.LVL17
 2128 00f4 A0000000 		.4byte	.LFE280
 2129 00f8 0200     		.2byte	0x2
 2130 00fa 7D       		.byte	0x7d
 2131 00fb 00       		.sleb128 0
 2132 00fc 00000000 		.4byte	0
 2133 0100 00000000 		.4byte	0
 2134              	.LLST9:
 2135 0104 18000000 		.4byte	.LVL4
 2136 0108 38000000 		.4byte	.LVL8
 2137 010c 0100     		.2byte	0x1
 2138 010e 50       		.byte	0x50
 2139 010f 3E000000 		.4byte	.LVL9
 2140 0113 52000000 		.4byte	.LVL11
 2141 0117 0B00     		.2byte	0xb
 2142 0119 71       		.byte	0x71
 2143 011a 00       		.sleb128 0
 2144 011b F3       		.byte	0xf3
 2145 011c 01       		.uleb128 0x1
 2146 011d 51       		.byte	0x51
 2147 011e 1C       		.byte	0x1c
 2148 011f F3       		.byte	0xf3
 2149 0120 01       		.uleb128 0x1
 2150 0121 50       		.byte	0x50
 2151 0122 22       		.byte	0x22
 2152 0123 9F       		.byte	0x9f
 2153 0124 52000000 		.4byte	.LVL11
 2154 0128 7E000000 		.4byte	.LVL13
 2155 012c 0D00     		.2byte	0xd
 2156 012e 71       		.byte	0x71
 2157 012f 00       		.sleb128 0
 2158 0130 F3       		.byte	0xf3
 2159 0131 01       		.uleb128 0x1
 2160 0132 50       		.byte	0x50
 2161 0133 22       		.byte	0x22
 2162 0134 F3       		.byte	0xf3
 2163 0135 01       		.uleb128 0x1
 2164 0136 51       		.byte	0x51
 2165 0137 1C       		.byte	0x1c
ARM GAS  /var/folders/jh/mykvt1xn5_n17wfcspzg3zpm0000gp/T//ccIA7qED.s 			page 39


 2166 0138 23       		.byte	0x23
 2167 0139 04       		.uleb128 0x4
 2168 013a 9F       		.byte	0x9f
 2169 013b 7E000000 		.4byte	.LVL13
 2170 013f 86000000 		.4byte	.LVL14
 2171 0143 0D00     		.2byte	0xd
 2172 0145 71       		.byte	0x71
 2173 0146 00       		.sleb128 0
 2174 0147 F3       		.byte	0xf3
 2175 0148 01       		.uleb128 0x1
 2176 0149 50       		.byte	0x50
 2177 014a 22       		.byte	0x22
 2178 014b F3       		.byte	0xf3
 2179 014c 01       		.uleb128 0x1
 2180 014d 51       		.byte	0x51
 2181 014e 1C       		.byte	0x1c
 2182 014f 23       		.byte	0x23
 2183 0150 08       		.uleb128 0x8
 2184 0151 9F       		.byte	0x9f
 2185 0152 86000000 		.4byte	.LVL14
 2186 0156 8C000000 		.4byte	.LVL16
 2187 015a 0B00     		.2byte	0xb
 2188 015c 71       		.byte	0x71
 2189 015d 00       		.sleb128 0
 2190 015e F3       		.byte	0xf3
 2191 015f 01       		.uleb128 0x1
 2192 0160 50       		.byte	0x50
 2193 0161 22       		.byte	0x22
 2194 0162 F3       		.byte	0xf3
 2195 0163 01       		.uleb128 0x1
 2196 0164 51       		.byte	0x51
 2197 0165 1C       		.byte	0x1c
 2198 0166 9F       		.byte	0x9f
 2199 0167 8C000000 		.4byte	.LVL16
 2200 016b A0000000 		.4byte	.LFE280
 2201 016f 0B00     		.2byte	0xb
 2202 0171 71       		.byte	0x71
 2203 0172 00       		.sleb128 0
 2204 0173 F3       		.byte	0xf3
 2205 0174 01       		.uleb128 0x1
 2206 0175 51       		.byte	0x51
 2207 0176 1C       		.byte	0x1c
 2208 0177 F3       		.byte	0xf3
 2209 0178 01       		.uleb128 0x1
 2210 0179 50       		.byte	0x50
 2211 017a 22       		.byte	0x22
 2212 017b 9F       		.byte	0x9f
 2213 017c 00000000 		.4byte	0
 2214 0180 00000000 		.4byte	0
 2215              	.LLST10:
 2216 0184 18000000 		.4byte	.LVL4
 2217 0188 38000000 		.4byte	.LVL8
 2218 018c 0100     		.2byte	0x1
 2219 018e 51       		.byte	0x51
 2220 018f 3E000000 		.4byte	.LVL9
 2221 0193 7E000000 		.4byte	.LVL13
 2222 0197 0100     		.2byte	0x1
ARM GAS  /var/folders/jh/mykvt1xn5_n17wfcspzg3zpm0000gp/T//ccIA7qED.s 			page 40


 2223 0199 51       		.byte	0x51
 2224 019a 7E000000 		.4byte	.LVL13
 2225 019e 86000000 		.4byte	.LVL14
 2226 01a2 0300     		.2byte	0x3
 2227 01a4 71       		.byte	0x71
 2228 01a5 04       		.sleb128 4
 2229 01a6 9F       		.byte	0x9f
 2230 01a7 86000000 		.4byte	.LVL14
 2231 01ab A0000000 		.4byte	.LFE280
 2232 01af 0100     		.2byte	0x1
 2233 01b1 51       		.byte	0x51
 2234 01b2 00000000 		.4byte	0
 2235 01b6 00000000 		.4byte	0
 2236              	.LLST11:
 2237 01ba 7E000000 		.4byte	.LVL13
 2238 01be 8C000000 		.4byte	.LVL16
 2239 01c2 0200     		.2byte	0x2
 2240 01c4 90       		.byte	0x90
 2241 01c5 4F       		.uleb128 0x4f
 2242 01c6 00000000 		.4byte	0
 2243 01ca 00000000 		.4byte	0
 2244              	.LLST12:
 2245 01ce 8A000000 		.4byte	.LVL15
 2246 01d2 8C000000 		.4byte	.LVL16
 2247 01d6 0600     		.2byte	0x6
 2248 01d8 03       		.byte	0x3
 2249 01d9 04000000 		.4byte	_ZL3lfo
 2250 01dd 9F       		.byte	0x9f
 2251 01de 00000000 		.4byte	0
 2252 01e2 00000000 		.4byte	0
 2253              	.LLST13:
 2254 01e6 46000000 		.4byte	.LVL10
 2255 01ea 52000000 		.4byte	.LVL11
 2256 01ee 0600     		.2byte	0x6
 2257 01f0 03       		.byte	0x3
 2258 01f1 04000000 		.4byte	_ZL3lfo
 2259 01f5 9F       		.byte	0x9f
 2260 01f6 00000000 		.4byte	0
 2261 01fa 00000000 		.4byte	0
 2262              	.LLST14:
 2263 01fe A8000000 		.4byte	.LVL19
 2264 0202 B8000000 		.4byte	.LVL21
 2265 0206 0200     		.2byte	0x2
 2266 0208 90       		.byte	0x90
 2267 0209 4F       		.uleb128 0x4f
 2268 020a B8000000 		.4byte	.LVL21
 2269 020e CC000000 		.4byte	.LVL23
 2270 0212 0F00     		.2byte	0xf
 2271 0214 71       		.byte	0x71
 2272 0215 00       		.sleb128 0
 2273 0216 F7       		.byte	0xf7
 2274 0217 2C       		.uleb128 0x2c
 2275 0218 F7       		.byte	0xf7
 2276 0219 25       		.uleb128 0x25
 2277 021a F4       		.byte	0xf4
 2278 021b 25       		.uleb128 0x25
 2279 021c 04       		.byte	0x4
ARM GAS  /var/folders/jh/mykvt1xn5_n17wfcspzg3zpm0000gp/T//ccIA7qED.s 			page 41


 2280 021d 00000030 		.4byte	0x30000000
 2281 0221 1E       		.byte	0x1e
 2282 0222 9F       		.byte	0x9f
 2283 0223 CC000000 		.4byte	.LVL23
 2284 0227 DC000000 		.4byte	.LFE281
 2285 022b 0200     		.2byte	0x2
 2286 022d 90       		.byte	0x90
 2287 022e 4F       		.uleb128 0x4f
 2288 022f 00000000 		.4byte	0
 2289 0233 00000000 		.4byte	0
 2290              	.LLST15:
 2291 0237 B0000000 		.4byte	.LVL20
 2292 023b CC000000 		.4byte	.LVL23
 2293 023f 0600     		.2byte	0x6
 2294 0241 9E       		.byte	0x9e
 2295 0242 04       		.uleb128 0x4
 2296 0243 3EC3AE37 		.4byte	0x37aec33e
 2297 0247 00000000 		.4byte	0
 2298 024b 00000000 		.4byte	0
 2299              	.LLST16:
 2300 024f B0000000 		.4byte	.LVL20
 2301 0253 B8000000 		.4byte	.LVL21
 2302 0257 0C00     		.2byte	0xc
 2303 0259 F5       		.byte	0xf5
 2304 025a 4F       		.uleb128 0x4f
 2305 025b 25       		.uleb128 0x25
 2306 025c F4       		.byte	0xf4
 2307 025d 25       		.uleb128 0x25
 2308 025e 04       		.byte	0x4
 2309 025f 00002041 		.4byte	0x41200000
 2310 0263 1E       		.byte	0x1e
 2311 0264 9F       		.byte	0x9f
 2312 0265 B8000000 		.4byte	.LVL21
 2313 0269 C2000000 		.4byte	.LVL22
 2314 026d 0200     		.2byte	0x2
 2315 026f 90       		.byte	0x90
 2316 0270 4F       		.uleb128 0x4f
 2317 0271 C2000000 		.4byte	.LVL22
 2318 0275 CC000000 		.4byte	.LVL23
 2319 0279 1700     		.2byte	0x17
 2320 027b 71       		.byte	0x71
 2321 027c 00       		.sleb128 0
 2322 027d F7       		.byte	0xf7
 2323 027e 2C       		.uleb128 0x2c
 2324 027f F7       		.byte	0xf7
 2325 0280 25       		.uleb128 0x25
 2326 0281 F4       		.byte	0xf4
 2327 0282 25       		.uleb128 0x25
 2328 0283 04       		.byte	0x4
 2329 0284 00000030 		.4byte	0x30000000
 2330 0288 1E       		.byte	0x1e
 2331 0289 F4       		.byte	0xf4
 2332 028a 25       		.uleb128 0x25
 2333 028b 04       		.byte	0x4
 2334 028c 00002041 		.4byte	0x41200000
 2335 0290 1E       		.byte	0x1e
 2336 0291 9F       		.byte	0x9f
ARM GAS  /var/folders/jh/mykvt1xn5_n17wfcspzg3zpm0000gp/T//ccIA7qED.s 			page 42


 2337 0292 00000000 		.4byte	0
 2338 0296 00000000 		.4byte	0
 2339              	.LLST17:
 2340 029a B0000000 		.4byte	.LVL20
 2341 029e CC000000 		.4byte	.LVL23
 2342 02a2 0600     		.2byte	0x6
 2343 02a4 03       		.byte	0x3
 2344 02a5 04000000 		.4byte	_ZL3lfo
 2345 02a9 9F       		.byte	0x9f
 2346 02aa 00000000 		.4byte	0
 2347 02ae 00000000 		.4byte	0
 2348              	.LLST18:
 2349 02b2 00000000 		.4byte	.LVL24
 2350 02b6 0C000000 		.4byte	.LVL25
 2351 02ba 0400     		.2byte	0x4
 2352 02bc 0A       		.byte	0xa
 2353 02bd FFFF     		.2byte	0xffff
 2354 02bf 9F       		.byte	0x9f
 2355 02c0 00000000 		.4byte	0
 2356 02c4 00000000 		.4byte	0
 2357              	.LLST19:
 2358 02c8 00000000 		.4byte	.LVL24
 2359 02cc 0C000000 		.4byte	.LVL25
 2360 02d0 0200     		.2byte	0x2
 2361 02d2 31       		.byte	0x31
 2362 02d3 9F       		.byte	0x9f
 2363 02d4 00000000 		.4byte	0
 2364 02d8 00000000 		.4byte	0
 2365              		.section	.debug_aranges,"",%progbits
 2366 0000 24000000 		.4byte	0x24
 2367 0004 0200     		.2byte	0x2
 2368 0006 00000000 		.4byte	.Ldebug_info0
 2369 000a 04       		.byte	0x4
 2370 000b 00       		.byte	0
 2371 000c 0000     		.2byte	0
 2372 000e 0000     		.2byte	0
 2373 0010 00000000 		.4byte	.Ltext0
 2374 0014 DC000000 		.4byte	.Letext0-.Ltext0
 2375 0018 00000000 		.4byte	.LFB283
 2376 001c 14000000 		.4byte	.LFE283-.LFB283
 2377 0020 00000000 		.4byte	0
 2378 0024 00000000 		.4byte	0
 2379              		.section	.debug_ranges,"",%progbits
 2380              	.Ldebug_ranges0:
 2381 0000 20000000 		.4byte	.LBB30
 2382 0004 26000000 		.4byte	.LBE30
 2383 0008 30000000 		.4byte	.LBB41
 2384 000c 38000000 		.4byte	.LBE41
 2385 0010 46000000 		.4byte	.LBB42
 2386 0014 A0000000 		.4byte	.LBE42
 2387 0018 00000000 		.4byte	0
 2388 001c 00000000 		.4byte	0
 2389 0020 22000000 		.4byte	.LBB33
 2390 0024 26000000 		.4byte	.LBE33
 2391 0028 46000000 		.4byte	.LBB39
 2392 002c 4A000000 		.4byte	.LBE39
 2393 0030 4E000000 		.4byte	.LBB40
ARM GAS  /var/folders/jh/mykvt1xn5_n17wfcspzg3zpm0000gp/T//ccIA7qED.s 			page 43


 2394 0034 5E000000 		.4byte	.LBE40
 2395 0038 00000000 		.4byte	0
 2396 003c 00000000 		.4byte	0
 2397 0040 00000000 		.4byte	.Ltext0
 2398 0044 DC000000 		.4byte	.Letext0
 2399 0048 00000000 		.4byte	.LFB283
 2400 004c 14000000 		.4byte	.LFE283
 2401 0050 00000000 		.4byte	0
 2402 0054 00000000 		.4byte	0
 2403              		.section	.debug_line,"",%progbits
 2404              	.Ldebug_line0:
 2405 0000 B1020000 		.section	.debug_str,"MS",%progbits,1
 2405      02003602 
 2405      00000201 
 2405      FB0E0D00 
 2405      01010101 
 2406              	.LASF20:
 2407 0000 6633325F 		.ascii	"f32_t\000"
 2407      7400
 2408              	.LASF54:
 2409 0006 5F5A4E33 		.ascii	"_ZN3dsp9SimpleLFO12triangle_uniEv\000"
 2409      64737039 
 2409      53696D70 
 2409      6C654C46 
 2409      4F313274 
 2410              	.LASF90:
 2411 0028 5F686F6F 		.ascii	"_hook_param\000"
 2411      6B5F7061 
 2411      72616D00 
 2412              	.LASF109:
 2413 0034 77745F70 		.ascii	"wt_par_lut_f\000"
 2413      61725F6C 
 2413      75745F66 
 2413      00
 2414              	.LASF116:
 2415 0041 32317573 		.ascii	"21user_modfx_param_id_t\000"
 2415      65725F6D 
 2415      6F646678 
 2415      5F706172 
 2415      616D5F69 
 2416              	.LASF52:
 2417 0059 5F5A4E33 		.ascii	"_ZN3dsp9SimpleLFO11triangle_biEv\000"
 2417      64737039 
 2417      53696D70 
 2417      6C654C46 
 2417      4F313174 
 2418              	.LASF111:
 2419 007a 474E5520 		.ascii	"GNU C++11 5.4.1 20160919 (release) [ARM/embedded-5-"
 2419      432B2B31 
 2419      3120352E 
 2419      342E3120 
 2419      32303136 
 2420 00ad 6272616E 		.ascii	"branch revision 240496] -mcpu=cortex-m4 -mthumb -mn"
 2420      63682072 
 2420      65766973 
 2420      696F6E20 
 2420      32343034 
ARM GAS  /var/folders/jh/mykvt1xn5_n17wfcspzg3zpm0000gp/T//ccIA7qED.s 			page 44


 2421 00e0 6F2D7468 		.ascii	"o-thumb-interwork -mlittle-endian -mfloat-abi=hard "
 2421      756D622D 
 2421      696E7465 
 2421      72776F72 
 2421      6B202D6D 
 2422 0113 2D6D6670 		.ascii	"-mfpu=fpv4-sp-d16 -g -Os -std=c++11 -fsingle-precis"
 2422      753D6670 
 2422      76342D73 
 2422      702D6431 
 2422      36202D67 
 2423 0146 696F6E2D 		.ascii	"ion-constant -fcheck-new -fno-rtti -fno-exceptions "
 2423      636F6E73 
 2423      74616E74 
 2423      202D6663 
 2423      6865636B 
 2424 0179 2D666E6F 		.ascii	"-fno-non-call-exceptions\000"
 2424      2D6E6F6E 
 2424      2D63616C 
 2424      6C2D6578 
 2424      63657074 
 2425              	.LASF12:
 2426 0192 756E7369 		.ascii	"unsigned int\000"
 2426      676E6564 
 2426      20696E74 
 2426      00
 2427              	.LASF103:
 2428 019f 62697472 		.ascii	"bitres_lut_f\000"
 2428      65735F6C 
 2428      75745F66 
 2428      00
 2429              	.LASF6:
 2430 01ac 5F5F696E 		.ascii	"__int32_t\000"
 2430      7433325F 
 2430      7400
 2431              	.LASF112:
 2432 01b6 7372632F 		.ascii	"src/tremoxd.cpp\000"
 2432      7472656D 
 2432      6F78642E 
 2432      63707000 
 2433              	.LASF80:
 2434 01c6 706C6174 		.ascii	"platform\000"
 2434      666F726D 
 2434      00
 2435              	.LASF118:
 2436 01cf 73695F66 		.ascii	"si_fabsf\000"
 2436      61627366 
 2436      00
 2437              	.LASF98:
 2438 01d8 74616E70 		.ascii	"tanpi_lut_f\000"
 2438      695F6C75 
 2438      745F6600 
 2439              	.LASF59:
 2440 01e4 7361775F 		.ascii	"saw_bi\000"
 2440      626900
 2441              	.LASF15:
 2442 01eb 75696E74 		.ascii	"uint32_t\000"
 2442      33325F74 
ARM GAS  /var/folders/jh/mykvt1xn5_n17wfcspzg3zpm0000gp/T//ccIA7qED.s 			page 45


 2442      00
 2443              	.LASF93:
 2444 01f4 76616C66 		.ascii	"valf\000"
 2444      00
 2445              	.LASF89:
 2446 01f9 7472656D 		.ascii	"tremolo_factor\000"
 2446      6F6C6F5F 
 2446      66616374 
 2446      6F7200
 2447              	.LASF46:
 2448 0208 5F5A4E33 		.ascii	"_ZN3dsp9SimpleLFO8sine_uniEv\000"
 2448      64737039 
 2448      53696D70 
 2448      6C654C46 
 2448      4F387369 
 2449              	.LASF106:
 2450 0225 6D696469 		.ascii	"midi_to_hz_lut_f\000"
 2450      5F746F5F 
 2450      687A5F6C 
 2450      75745F66 
 2450      00
 2451              	.LASF71:
 2452 0236 73717561 		.ascii	"square_bi_off\000"
 2452      72655F62 
 2452      695F6F66 
 2452      6600
 2453              	.LASF0:
 2454 0244 666C6F61 		.ascii	"float\000"
 2454      7400
 2455              	.LASF91:
 2456 024a 696E6465 		.ascii	"index\000"
 2456      7800
 2457              	.LASF24:
 2458 0250 6B5F7573 		.ascii	"k_user_module_delfx\000"
 2458      65725F6D 
 2458      6F64756C 
 2458      655F6465 
 2458      6C667800 
 2459              	.LASF36:
 2460 0264 5F5A4E33 		.ascii	"_ZN3dsp9SimpleLFO5resetEv\000"
 2460      64737039 
 2460      53696D70 
 2460      6C654C46 
 2460      4F357265 
 2461              	.LASF11:
 2462 027e 6C6F6E67 		.ascii	"long long unsigned int\000"
 2462      206C6F6E 
 2462      6720756E 
 2462      7369676E 
 2462      65642069 
 2463              	.LASF67:
 2464 0295 73717561 		.ascii	"square_bi\000"
 2464      72655F62 
 2464      6900
 2465              	.LASF44:
 2466 029f 5F5A4E33 		.ascii	"_ZN3dsp9SimpleLFO7sine_biEv\000"
 2466      64737039 
ARM GAS  /var/folders/jh/mykvt1xn5_n17wfcspzg3zpm0000gp/T//ccIA7qED.s 			page 46


 2466      53696D70 
 2466      6C654C46 
 2466      4F377369 
 2467              	.LASF92:
 2468 02bb 76616C75 		.ascii	"value\000"
 2468      6500
 2469              	.LASF77:
 2470 02c1 5F5F696E 		.ascii	"__initialize_p\000"
 2470      69746961 
 2470      6C697A65 
 2470      5F7000
 2471              	.LASF47:
 2472 02d0 73696E65 		.ascii	"sine_bi_off\000"
 2472      5F62695F 
 2472      6F666600 
 2473              	.LASF25:
 2474 02dc 6B5F7573 		.ascii	"k_user_module_revfx\000"
 2474      65725F6D 
 2474      6F64756C 
 2474      655F7265 
 2474      76667800 
 2475              	.LASF42:
 2476 02f0 73696E65 		.ascii	"sine_bi\000"
 2476      5F626900 
 2477              	.LASF78:
 2478 02f8 5F5F7072 		.ascii	"__priority\000"
 2478      696F7269 
 2478      747900
 2479              	.LASF30:
 2480 0303 6B5F6E75 		.ascii	"k_num_user_modfx_param_id\000"
 2480      6D5F7573 
 2480      65725F6D 
 2480      6F646678 
 2480      5F706172 
 2481              	.LASF88:
 2482 031d 70726F63 		.ascii	"processed_mx\000"
 2482      65737365 
 2482      645F6D78 
 2482      00
 2483              	.LASF43:
 2484 032a 5F5A4E33 		.ascii	"_ZN3dsp9SimpleLFOC4Ev\000"
 2484      64737039 
 2484      53696D70 
 2484      6C654C46 
 2484      4F433445 
 2485              	.LASF32:
 2486 0340 70686930 		.ascii	"phi0\000"
 2486      00
 2487              	.LASF65:
 2488 0345 7361775F 		.ascii	"saw_uni_off\000"
 2488      756E695F 
 2488      6F666600 
 2489              	.LASF66:
 2490 0351 5F5A4E33 		.ascii	"_ZN3dsp9SimpleLFO11saw_uni_offEf\000"
 2490      64737039 
 2490      53696D70 
 2490      6C654C46 
ARM GAS  /var/folders/jh/mykvt1xn5_n17wfcspzg3zpm0000gp/T//ccIA7qED.s 			page 47


 2490      4F313173 
 2491              	.LASF40:
 2492 0372 5F5A4E33 		.ascii	"_ZN3dsp9SimpleLFO5setW0Ef\000"
 2492      64737039 
 2492      53696D70 
 2492      6C654C46 
 2492      4F357365 
 2493              	.LASF18:
 2494 038c 63686172 		.ascii	"char\000"
 2494      00
 2495              	.LASF100:
 2496 0391 706F7732 		.ascii	"pow2_lut_f\000"
 2496      5F6C7574 
 2496      5F6600
 2497              	.LASF55:
 2498 039c 74726961 		.ascii	"triangle_bi_off\000"
 2498      6E676C65 
 2498      5F62695F 
 2498      6F666600 
 2499              	.LASF94:
 2500 03ac 6B5F6678 		.ascii	"k_fx_api_platform\000"
 2500      5F617069 
 2500      5F706C61 
 2500      74666F72 
 2500      6D00
 2501              	.LASF72:
 2502 03be 5F5A4E33 		.ascii	"_ZN3dsp9SimpleLFO13square_bi_offEf\000"
 2502      64737039 
 2502      53696D70 
 2502      6C654C46 
 2502      4F313373 
 2503              	.LASF31:
 2504 03e1 75736572 		.ascii	"user_modfx_param_id_t\000"
 2504      5F6D6F64 
 2504      66785F70 
 2504      6172616D 
 2504      5F69645F 
 2505              	.LASF86:
 2506 03f7 6672616D 		.ascii	"frames\000"
 2506      657300
 2507              	.LASF102:
 2508 03fe 73636865 		.ascii	"schetzen_lut_f\000"
 2508      747A656E 
 2508      5F6C7574 
 2508      5F6600
 2509              	.LASF13:
 2510 040d 75696E74 		.ascii	"uint8_t\000"
 2510      385F7400 
 2511              	.LASF38:
 2512 0415 5F5A4E33 		.ascii	"_ZN3dsp9SimpleLFO5setF0Eff\000"
 2512      64737039 
 2512      53696D70 
 2512      6C654C46 
 2512      4F357365 
 2513              	.LASF50:
 2514 0430 5F5A4E33 		.ascii	"_ZN3dsp9SimpleLFO12sine_uni_offEf\000"
 2514      64737039 
ARM GAS  /var/folders/jh/mykvt1xn5_n17wfcspzg3zpm0000gp/T//ccIA7qED.s 			page 48


 2514      53696D70 
 2514      6C654C46 
 2514      4F313273 
 2515              	.LASF97:
 2516 0452 6C6F675F 		.ascii	"log_lut_f\000"
 2516      6C75745F 
 2516      6600
 2517              	.LASF10:
 2518 045c 6C6F6E67 		.ascii	"long long int\000"
 2518      206C6F6E 
 2518      6720696E 
 2518      7400
 2519              	.LASF28:
 2520 046a 6B5F7573 		.ascii	"k_user_modfx_param_time\000"
 2520      65725F6D 
 2520      6F646678 
 2520      5F706172 
 2520      616D5F74 
 2521              	.LASF29:
 2522 0482 6B5F7573 		.ascii	"k_user_modfx_param_depth\000"
 2522      65725F6D 
 2522      6F646678 
 2522      5F706172 
 2522      616D5F64 
 2523              	.LASF120:
 2524 049b 5F474C4F 		.ascii	"_GLOBAL__sub_I_tremolo_depth\000"
 2524      42414C5F 
 2524      5F737562 
 2524      5F495F74 
 2524      72656D6F 
 2525              	.LASF82:
 2526 04b8 6D61696E 		.ascii	"main_xn\000"
 2526      5F786E00 
 2527              	.LASF70:
 2528 04c0 5F5A4E33 		.ascii	"_ZN3dsp9SimpleLFO10square_uniEv\000"
 2528      64737039 
 2528      53696D70 
 2528      6C654C46 
 2528      4F313073 
 2529              	.LASF84:
 2530 04e0 7375625F 		.ascii	"sub_xn\000"
 2530      786E00
 2531              	.LASF27:
 2532 04e7 6B5F6E75 		.ascii	"k_num_user_modules\000"
 2532      6D5F7573 
 2532      65725F6D 
 2532      6F64756C 
 2532      657300
 2533              	.LASF61:
 2534 04fa 7361775F 		.ascii	"saw_uni\000"
 2534      756E6900 
 2535              	.LASF60:
 2536 0502 5F5A4E33 		.ascii	"_ZN3dsp9SimpleLFO6saw_biEv\000"
 2536      64737039 
 2536      53696D70 
 2536      6C654C46 
 2536      4F367361 
ARM GAS  /var/folders/jh/mykvt1xn5_n17wfcspzg3zpm0000gp/T//ccIA7qED.s 			page 49


 2537              	.LASF48:
 2538 051d 5F5A4E33 		.ascii	"_ZN3dsp9SimpleLFO11sine_bi_offEf\000"
 2538      64737039 
 2538      53696D70 
 2538      6C654C46 
 2538      4F313173 
 2539              	.LASF115:
 2540 053e 35663332 		.ascii	"5f32_t\000"
 2540      5F7400
 2541              	.LASF83:
 2542 0545 6D61696E 		.ascii	"main_yn\000"
 2542      5F796E00 
 2543              	.LASF107:
 2544 054d 77745F73 		.ascii	"wt_saw_lut_f\000"
 2544      61775F6C 
 2544      75745F66 
 2544      00
 2545              	.LASF85:
 2546 055a 7375625F 		.ascii	"sub_yn\000"
 2546      796E00
 2547              	.LASF26:
 2548 0561 6B5F7573 		.ascii	"k_user_module_osc\000"
 2548      65725F6D 
 2548      6F64756C 
 2548      655F6F73 
 2548      6300
 2549              	.LASF16:
 2550 0573 6C6F6E67 		.ascii	"long double\000"
 2550      20646F75 
 2550      626C6500 
 2551              	.LASF74:
 2552 057f 74686973 		.ascii	"this\000"
 2552      00
 2553              	.LASF119:
 2554 0584 5F5F7374 		.ascii	"__static_initialization_and_destruction_0\000"
 2554      61746963 
 2554      5F696E69 
 2554      7469616C 
 2554      697A6174 
 2555              	.LASF51:
 2556 05ae 74726961 		.ascii	"triangle_bi\000"
 2556      6E676C65 
 2556      5F626900 
 2557              	.LASF81:
 2558 05ba 5F686F6F 		.ascii	"_hook_process\000"
 2558      6B5F7072 
 2558      6F636573 
 2558      7300
 2559              	.LASF58:
 2560 05c8 5F5A4E33 		.ascii	"_ZN3dsp9SimpleLFO16triangle_uni_offEf\000"
 2560      64737039 
 2560      53696D70 
 2560      6C654C46 
 2560      4F313674 
 2561              	.LASF79:
 2562 05ee 5F686F6F 		.ascii	"_hook_init\000"
 2562      6B5F696E 
ARM GAS  /var/folders/jh/mykvt1xn5_n17wfcspzg3zpm0000gp/T//ccIA7qED.s 			page 50


 2562      697400
 2563              	.LASF3:
 2564 05f9 73686F72 		.ascii	"short int\000"
 2564      7420696E 
 2564      7400
 2565              	.LASF99:
 2566 0603 73717274 		.ascii	"sqrtm2log_lut_f\000"
 2566      6D326C6F 
 2566      675F6C75 
 2566      745F6600 
 2567              	.LASF101:
 2568 0613 63756269 		.ascii	"cubicsat_lut_f\000"
 2568      63736174 
 2568      5F6C7574 
 2568      5F6600
 2569              	.LASF108:
 2570 0622 77745F73 		.ascii	"wt_sqr_lut_f\000"
 2570      71725F6C 
 2570      75745F66 
 2570      00
 2571              	.LASF7:
 2572 062f 6C6F6E67 		.ascii	"long int\000"
 2572      20696E74 
 2572      00
 2573              	.LASF37:
 2574 0638 73657446 		.ascii	"setF0\000"
 2574      3000
 2575              	.LASF35:
 2576 063e 5F5A4E33 		.ascii	"_ZN3dsp9SimpleLFO5cycleEv\000"
 2576      64737039 
 2576      53696D70 
 2576      6C654C46 
 2576      4F356379 
 2577              	.LASF95:
 2578 0658 6B5F6678 		.ascii	"k_fx_api_version\000"
 2578      5F617069 
 2578      5F766572 
 2578      73696F6E 
 2578      00
 2579              	.LASF23:
 2580 0669 6B5F7573 		.ascii	"k_user_module_modfx\000"
 2580      65725F6D 
 2580      6F64756C 
 2580      655F6D6F 
 2580      64667800 
 2581              	.LASF33:
 2582 067d 6379636C 		.ascii	"cycle\000"
 2582      6500
 2583              	.LASF45:
 2584 0683 73696E65 		.ascii	"sine_uni\000"
 2584      5F756E69 
 2584      00
 2585              	.LASF56:
 2586 068c 5F5A4E33 		.ascii	"_ZN3dsp9SimpleLFO15triangle_bi_offEf\000"
 2586      64737039 
 2586      53696D70 
 2586      6C654C46 
ARM GAS  /var/folders/jh/mykvt1xn5_n17wfcspzg3zpm0000gp/T//ccIA7qED.s 			page 51


 2586      4F313574 
 2587              	.LASF76:
 2588 06b1 70686966 		.ascii	"phif\000"
 2588      00
 2589              	.LASF34:
 2590 06b6 72657365 		.ascii	"reset\000"
 2590      7400
 2591              	.LASF5:
 2592 06bc 5F5F7569 		.ascii	"__uint8_t\000"
 2592      6E74385F 
 2592      7400
 2593              	.LASF105:
 2594 06c6 6B5F6F73 		.ascii	"k_osc_api_version\000"
 2594      635F6170 
 2594      695F7665 
 2594      7273696F 
 2594      6E00
 2595              	.LASF49:
 2596 06d8 73696E65 		.ascii	"sine_uni_off\000"
 2596      5F756E69 
 2596      5F6F6666 
 2596      00
 2597              	.LASF21:
 2598 06e5 7133315F 		.ascii	"q31_t\000"
 2598      7400
 2599              	.LASF87:
 2600 06eb 6D795F65 		.ascii	"my_e\000"
 2600      00
 2601              	.LASF17:
 2602 06f0 73697A65 		.ascii	"sizetype\000"
 2602      74797065 
 2602      00
 2603              	.LASF9:
 2604 06f9 6C6F6E67 		.ascii	"long unsigned int\000"
 2604      20756E73 
 2604      69676E65 
 2604      6420696E 
 2604      7400
 2605              	.LASF96:
 2606 070b 77745F73 		.ascii	"wt_sine_lut_f\000"
 2606      696E655F 
 2606      6C75745F 
 2606      6600
 2607              	.LASF39:
 2608 0719 73657457 		.ascii	"setW0\000"
 2608      3000
 2609              	.LASF14:
 2610 071f 696E7433 		.ascii	"int32_t\000"
 2610      325F7400 
 2611              	.LASF73:
 2612 0727 73717561 		.ascii	"square_uni_off\000"
 2612      72655F75 
 2612      6E695F6F 
 2612      666600
 2613              	.LASF75:
 2614 0736 66737265 		.ascii	"fsrecip\000"
 2614      63697000 
ARM GAS  /var/folders/jh/mykvt1xn5_n17wfcspzg3zpm0000gp/T//ccIA7qED.s 			page 52


 2615              	.LASF2:
 2616 073e 756E7369 		.ascii	"unsigned char\000"
 2616      676E6564 
 2616      20636861 
 2616      7200
 2617              	.LASF8:
 2618 074c 5F5F7569 		.ascii	"__uint32_t\000"
 2618      6E743332 
 2618      5F7400
 2619              	.LASF57:
 2620 0757 74726961 		.ascii	"triangle_uni_off\000"
 2620      6E676C65 
 2620      5F756E69 
 2620      5F6F6666 
 2620      00
 2621              	.LASF22:
 2622 0768 6B5F7573 		.ascii	"k_user_module_global\000"
 2622      65725F6D 
 2622      6F64756C 
 2622      655F676C 
 2622      6F62616C 
 2623              	.LASF114:
 2624 077d 6465636C 		.ascii	"decltype(nullptr)\000"
 2624      74797065 
 2624      286E756C 
 2624      6C707472 
 2624      2900
 2625              	.LASF68:
 2626 078f 73717561 		.ascii	"square_uni\000"
 2626      72655F75 
 2626      6E6900
 2627              	.LASF117:
 2628 079a 5F5A4E33 		.ascii	"_ZN3dsp9SimpleLFO14square_uni_offEf\000"
 2628      64737039 
 2628      53696D70 
 2628      6C654C46 
 2628      4F313473 
 2629              	.LASF63:
 2630 07be 7361775F 		.ascii	"saw_bi_off\000"
 2630      62695F6F 
 2630      666600
 2631              	.LASF1:
 2632 07c9 7369676E 		.ascii	"signed char\000"
 2632      65642063 
 2632      68617200 
 2633              	.LASF4:
 2634 07d5 73686F72 		.ascii	"short unsigned int\000"
 2634      7420756E 
 2634      7369676E 
 2634      65642069 
 2634      6E7400
 2635              	.LASF69:
 2636 07e8 5F5A4E33 		.ascii	"_ZN3dsp9SimpleLFO9square_biEv\000"
 2636      64737039 
 2636      53696D70 
 2636      6C654C46 
 2636      4F397371 
ARM GAS  /var/folders/jh/mykvt1xn5_n17wfcspzg3zpm0000gp/T//ccIA7qED.s 			page 53


 2637              	.LASF19:
 2638 0806 646F7562 		.ascii	"double\000"
 2638      6C6500
 2639              	.LASF64:
 2640 080d 5F5A4E33 		.ascii	"_ZN3dsp9SimpleLFO10saw_bi_offEf\000"
 2640      64737039 
 2640      53696D70 
 2640      6C654C46 
 2640      4F313073 
 2641              	.LASF113:
 2642 082d 2F557365 		.ascii	"/Users/taschke/projects/tremoxd\000"
 2642      72732F74 
 2642      61736368 
 2642      6B652F70 
 2642      726F6A65 
 2643              	.LASF53:
 2644 084d 74726961 		.ascii	"triangle_uni\000"
 2644      6E676C65 
 2644      5F756E69 
 2644      00
 2645              	.LASF110:
 2646 085a 7472656D 		.ascii	"tremolo_depth\000"
 2646      6F6C6F5F 
 2646      64657074 
 2646      6800
 2647              	.LASF62:
 2648 0868 5F5A4E33 		.ascii	"_ZN3dsp9SimpleLFO7saw_uniEv\000"
 2648      64737039 
 2648      53696D70 
 2648      6C654C46 
 2648      4F377361 
 2649              	.LASF41:
 2650 0884 53696D70 		.ascii	"SimpleLFO\000"
 2650      6C654C46 
 2650      4F00
 2651              	.LASF104:
 2652 088e 6B5F6F73 		.ascii	"k_osc_api_platform\000"
 2652      635F6170 
 2652      695F706C 
 2652      6174666F 
 2652      726D00
 2653              		.ident	"GCC: (GNU Tools for ARM Embedded Processors) 5.4.1 20160919 (release) [ARM/embedded-5-bran
ARM GAS  /var/folders/jh/mykvt1xn5_n17wfcspzg3zpm0000gp/T//ccIA7qED.s 			page 54


DEFINED SYMBOLS
                            *ABS*:0000000000000000 tremoxd.cpp
/var/folders/jh/mykvt1xn5_n17wfcspzg3zpm0000gp/T//ccIA7qED.s:21     .text:0000000000000000 $t
/var/folders/jh/mykvt1xn5_n17wfcspzg3zpm0000gp/T//ccIA7qED.s:26     .text:0000000000000000 _hook_init
/var/folders/jh/mykvt1xn5_n17wfcspzg3zpm0000gp/T//ccIA7qED.s:59     .text:0000000000000014 $d
/var/folders/jh/mykvt1xn5_n17wfcspzg3zpm0000gp/T//ccIA7qED.s:65     .text:0000000000000018 $t
/var/folders/jh/mykvt1xn5_n17wfcspzg3zpm0000gp/T//ccIA7qED.s:70     .text:0000000000000018 _hook_process
/var/folders/jh/mykvt1xn5_n17wfcspzg3zpm0000gp/T//ccIA7qED.s:182    .text:0000000000000098 $d
/var/folders/jh/mykvt1xn5_n17wfcspzg3zpm0000gp/T//ccIA7qED.s:189    .text:00000000000000a0 $t
/var/folders/jh/mykvt1xn5_n17wfcspzg3zpm0000gp/T//ccIA7qED.s:194    .text:00000000000000a0 _hook_param
/var/folders/jh/mykvt1xn5_n17wfcspzg3zpm0000gp/T//ccIA7qED.s:237    .text:00000000000000d4 $d
/var/folders/jh/mykvt1xn5_n17wfcspzg3zpm0000gp/T//ccIA7qED.s:243    .text.startup:0000000000000000 $t
/var/folders/jh/mykvt1xn5_n17wfcspzg3zpm0000gp/T//ccIA7qED.s:247    .text.startup:0000000000000000 _GLOBAL__sub_I_tremolo_depth
/var/folders/jh/mykvt1xn5_n17wfcspzg3zpm0000gp/T//ccIA7qED.s:269    .text.startup:0000000000000010 $d
/var/folders/jh/mykvt1xn5_n17wfcspzg3zpm0000gp/T//ccIA7qED.s:277    .init_array:0000000000000000 $d
/var/folders/jh/mykvt1xn5_n17wfcspzg3zpm0000gp/T//ccIA7qED.s:285    .bss:0000000000000000 tremolo_depth
/var/folders/jh/mykvt1xn5_n17wfcspzg3zpm0000gp/T//ccIA7qED.s:281    .bss:0000000000000000 $d
/var/folders/jh/mykvt1xn5_n17wfcspzg3zpm0000gp/T//ccIA7qED.s:289    .bss:0000000000000004 _ZL3lfo
                     .debug_frame:0000000000000010 $d

NO UNDEFINED SYMBOLS
